SF:H:\Projects\Latitude\latitude-rs\src\lib.rs
FN:325,_RNvMCsaBorPZtlsJg_8latitudeNtB2_6Client4chat
FN:325,_RNCNvMCsaBorPZtlsJg_8latitudeNtB4_6Client4chat0B4_
FN:329,_RNvMCsaBorPZtlsJg_8latitudeNtB2_6Client3get
FN:329,_RNCNvMCsaBorPZtlsJg_8latitudeNtB4_6Client3get0B4_
FN:333,_RNvMCsaBorPZtlsJg_8latitudeNtB2_6Client3log
FN:333,_RNCNvMCsaBorPZtlsJg_8latitudeNtB4_6Client3log0B4_
FN:337,_RNvMCsaBorPZtlsJg_8latitudeNtB2_6Client4eval
FN:337,_RNCNvMCsaBorPZtlsJg_8latitudeNtB4_6Client4eval0B4_
FN:474,_RNvNtCsaBorPZtlsJg_8latitude5tests12setup_client
FN:494,_RNvNtCsaBorPZtlsJg_8latitude5tests21check_standard_result
FN:516,_RNvNtCsaBorPZtlsJg_8latitude5tests19setup_standard_mock
FN:537,_RNvNtCsaBorPZtlsJg_8latitude5tests28setup_mock_with_stream_event
FN:553,_RNvNtCsaBorPZtlsJg_8latitude5testss_33test_client_creation_with_builder
FN:568,_RNvNtCsaBorPZtlsJg_8latitude5testss_42test_client_creation_with_default_base_url
FN:578,_RNvNtCsaBorPZtlsJg_8latitude5testss_46test_client_creation_new_with_default_base_url
FN:593,_RNvNtCsaBorPZtlsJg_8latitude5testss_31test_run_document_json_response
FN:615,_RNvNtCsaBorPZtlsJg_8latitude5testss_30test_run_document_with_options
FN:653,_RNvNtCsaBorPZtlsJg_8latitude5testss_31test_run_document_no_project_id
FN:671,_RNvNtCsaBorPZtlsJg_8latitude5testss_31test_run_document_no_version_id
FN:688,_RNvNtCsaBorPZtlsJg_8latitude5testss_26test_latitude_event_stream
FN:749,_RNvNtCsaBorPZtlsJg_8latitude5testss_26test_provider_event_stream
FN:800,_RNvNtCsaBorPZtlsJg_8latitude5testss_25test_unknown_event_stream
FN:846,_RNvNtCsaBorPZtlsJg_8latitude5testss_29test_streaming_error_handling
FN:897,_RNvNtCsaBorPZtlsJg_8latitude5testss_17test_check_status
FN:115,_RNvMCsaBorPZtlsJg_8latitudeNtB2_6Client3new
FN:158,_RNvMCsaBorPZtlsJg_8latitudeNtB2_6Client7builder
FN:341,_RNvMCsaBorPZtlsJg_8latitudeNtB2_6Client12check_status
FN:390,_RNvMs_CsaBorPZtlsJg_8latitudeNtB4_13ClientBuilder10project_id
FN:410,_RNvMs_CsaBorPZtlsJg_8latitudeNtB4_13ClientBuilder10version_id
FN:430,_RNvMs_CsaBorPZtlsJg_8latitudeNtB4_13ClientBuilder8base_url
FN:449,_RNvMs_CsaBorPZtlsJg_8latitudeNtB4_13ClientBuilder5build
FN:516,_RNCNvNtCsaBorPZtlsJg_8latitude5tests19setup_standard_mock0B5_
FN:517,_RNCNCNvNtCsaBorPZtlsJg_8latitude5tests19setup_standard_mock00B7_
FN:541,_RNCNvNtCsaBorPZtlsJg_8latitude5tests28setup_mock_with_stream_event0B5_
FN:542,_RNCNCNvNtCsaBorPZtlsJg_8latitude5tests28setup_mock_with_stream_event00B7_
FN:553,_RNCNvNtCsaBorPZtlsJg_8latitude5testss_33test_client_creation_with_builder0B5_
FN:568,_RNCNvNtCsaBorPZtlsJg_8latitude5testss_42test_client_creation_with_default_base_url0B5_
FN:578,_RNCNvNtCsaBorPZtlsJg_8latitude5testss_46test_client_creation_new_with_default_base_url0B5_
FN:593,_RNCNvNtCsaBorPZtlsJg_8latitude5testss_31test_run_document_json_response0B5_
FN:615,_RNCNvNtCsaBorPZtlsJg_8latitude5testss_30test_run_document_with_options0B5_
FN:653,_RNCNvNtCsaBorPZtlsJg_8latitude5testss_31test_run_document_no_project_id0B5_
FN:671,_RNCNvNtCsaBorPZtlsJg_8latitude5testss_31test_run_document_no_version_id0B5_
FN:688,_RNCNvNtCsaBorPZtlsJg_8latitude5testss_26test_latitude_event_stream0B5_
FN:749,_RNCNvNtCsaBorPZtlsJg_8latitude5testss_26test_provider_event_stream0B5_
FN:800,_RNCNvNtCsaBorPZtlsJg_8latitude5testss_25test_unknown_event_stream0B5_
FN:846,_RNCNvNtCsaBorPZtlsJg_8latitude5testss_29test_streaming_error_handling0B5_
FN:851,_RNCNCNvNtCsaBorPZtlsJg_8latitude5testss_29test_streaming_error_handling00B7_
FN:132,_RNCNvMCsaBorPZtlsJg_8latitudeNtB4_6Client3new0B4_
FN:246,_RINvMCsaBorPZtlsJg_8latitudeNtB3_6Client3runNtNCNvNtB3_5testss_30test_run_document_with_options06ParamsEB3_
FN:246,_RINvMCsaBorPZtlsJg_8latitudeNtB3_6Client3runuEB3_
FN:249,_RNCINvMCsaBorPZtlsJg_8latitudeNtB5_6Client3runNtNCNvNtB5_5testss_30test_run_document_with_options06ParamsE0B5_
FN:249,_RNCINvMCsaBorPZtlsJg_8latitudeNtB5_6Client3runuE0B5_
FN:253,_RNCNCINvMCsaBorPZtlsJg_8latitudeNtB7_6Client3runNtNCNvNtB7_5testss_30test_run_document_with_options06ParamsE00B7_
FN:253,_RNCNCINvMCsaBorPZtlsJg_8latitudeNtB7_6Client3runuE00B7_
FN:255,_RNCNCINvMCsaBorPZtlsJg_8latitudeNtB7_6Client3runNtNCNvNtB7_5testss_30test_run_document_with_options06ParamsE0s_0B7_
FN:255,_RNCNCINvMCsaBorPZtlsJg_8latitudeNtB7_6Client3runuE0s_0B7_
FN:260,_RNCNCINvMCsaBorPZtlsJg_8latitudeNtB7_6Client3runNtNCNvNtB7_5testss_30test_run_document_with_options06ParamsE0s0_0B7_
FN:260,_RNCNCINvMCsaBorPZtlsJg_8latitudeNtB7_6Client3runuE0s0_0B7_
FN:262,_RNCNCINvMCsaBorPZtlsJg_8latitudeNtB7_6Client3runNtNCNvNtB7_5testss_30test_run_document_with_options06ParamsE0s1_0B7_
FN:262,_RNCNCINvMCsaBorPZtlsJg_8latitudeNtB7_6Client3runuE0s1_0B7_
FN:279,_RNCNCINvMCsaBorPZtlsJg_8latitudeNtB7_6Client3runNtNCNvNtB7_5testss_30test_run_document_with_options06ParamsE0s2_0B7_
FN:279,_RNCNCINvMCsaBorPZtlsJg_8latitudeNtB7_6Client3runuE0s2_0B7_
FN:280,_RNCNCNCINvMCsaBorPZtlsJg_8latitudeNtB9_6Client3runNtNCNvNtB9_5testss_30test_run_document_with_options06ParamsE0s2_00B9_
FN:280,_RNCNCNCINvMCsaBorPZtlsJg_8latitudeNtB9_6Client3runuE0s2_00B9_
FN:281,_RNCNCNCNCINvMCsaBorPZtlsJg_8latitudeNtBb_6Client3runNtNCNvNtBb_5testss_30test_run_document_with_options06ParamsE0s2_000Bb_
FN:281,_RNCNCNCNCINvMCsaBorPZtlsJg_8latitudeNtBb_6Client3runuE0s2_000Bb_
FNDA:0,_RNvMCsaBorPZtlsJg_8latitudeNtB2_6Client4chat
FNDA:0,_RNCNvMCsaBorPZtlsJg_8latitudeNtB4_6Client4chat0B4_
FNDA:0,_RNvMCsaBorPZtlsJg_8latitudeNtB2_6Client3get
FNDA:0,_RNCNvMCsaBorPZtlsJg_8latitudeNtB4_6Client3get0B4_
FNDA:0,_RNvMCsaBorPZtlsJg_8latitudeNtB2_6Client3log
FNDA:0,_RNCNvMCsaBorPZtlsJg_8latitudeNtB4_6Client3log0B4_
FNDA:0,_RNvMCsaBorPZtlsJg_8latitudeNtB2_6Client4eval
FNDA:0,_RNCNvMCsaBorPZtlsJg_8latitudeNtB4_6Client4eval0B4_
FNDA:6,_RNvNtCsaBorPZtlsJg_8latitude5tests12setup_client
FNDA:3,_RNvNtCsaBorPZtlsJg_8latitude5tests21check_standard_result
FNDA:3,_RNvNtCsaBorPZtlsJg_8latitude5tests19setup_standard_mock
FNDA:3,_RNvNtCsaBorPZtlsJg_8latitude5tests28setup_mock_with_stream_event
FNDA:1,_RNvNtCsaBorPZtlsJg_8latitude5testss_33test_client_creation_with_builder
FNDA:1,_RNvNtCsaBorPZtlsJg_8latitude5testss_42test_client_creation_with_default_base_url
FNDA:1,_RNvNtCsaBorPZtlsJg_8latitude5testss_46test_client_creation_new_with_default_base_url
FNDA:1,_RNvNtCsaBorPZtlsJg_8latitude5testss_31test_run_document_json_response
FNDA:1,_RNvNtCsaBorPZtlsJg_8latitude5testss_30test_run_document_with_options
FNDA:1,_RNvNtCsaBorPZtlsJg_8latitude5testss_31test_run_document_no_project_id
FNDA:1,_RNvNtCsaBorPZtlsJg_8latitude5testss_31test_run_document_no_version_id
FNDA:1,_RNvNtCsaBorPZtlsJg_8latitude5testss_26test_latitude_event_stream
FNDA:1,_RNvNtCsaBorPZtlsJg_8latitude5testss_26test_provider_event_stream
FNDA:1,_RNvNtCsaBorPZtlsJg_8latitude5testss_25test_unknown_event_stream
FNDA:1,_RNvNtCsaBorPZtlsJg_8latitude5testss_29test_streaming_error_handling
FNDA:1,_RNvNtCsaBorPZtlsJg_8latitude5testss_17test_check_status
FNDA:11,_RNvMCsaBorPZtlsJg_8latitudeNtB2_6Client3new
FNDA:10,_RNvMCsaBorPZtlsJg_8latitudeNtB2_6Client7builder
FNDA:16,_RNvMCsaBorPZtlsJg_8latitudeNtB2_6Client12check_status
FNDA:9,_RNvMs_CsaBorPZtlsJg_8latitudeNtB4_13ClientBuilder10project_id
FNDA:9,_RNvMs_CsaBorPZtlsJg_8latitudeNtB4_13ClientBuilder10version_id
FNDA:9,_RNvMs_CsaBorPZtlsJg_8latitudeNtB4_13ClientBuilder8base_url
FNDA:10,_RNvMs_CsaBorPZtlsJg_8latitudeNtB4_13ClientBuilder5build
FNDA:3,_RNCNvNtCsaBorPZtlsJg_8latitude5tests19setup_standard_mock0B5_
FNDA:3,_RNCNCNvNtCsaBorPZtlsJg_8latitude5tests19setup_standard_mock00B7_
FNDA:3,_RNCNvNtCsaBorPZtlsJg_8latitude5tests28setup_mock_with_stream_event0B5_
FNDA:3,_RNCNCNvNtCsaBorPZtlsJg_8latitude5tests28setup_mock_with_stream_event00B7_
FNDA:1,_RNCNvNtCsaBorPZtlsJg_8latitude5testss_33test_client_creation_with_builder0B5_
FNDA:1,_RNCNvNtCsaBorPZtlsJg_8latitude5testss_42test_client_creation_with_default_base_url0B5_
FNDA:1,_RNCNvNtCsaBorPZtlsJg_8latitude5testss_46test_client_creation_new_with_default_base_url0B5_
FNDA:1,_RNCNvNtCsaBorPZtlsJg_8latitude5testss_31test_run_document_json_response0B5_
FNDA:1,_RNCNvNtCsaBorPZtlsJg_8latitude5testss_30test_run_document_with_options0B5_
FNDA:1,_RNCNvNtCsaBorPZtlsJg_8latitude5testss_31test_run_document_no_project_id0B5_
FNDA:1,_RNCNvNtCsaBorPZtlsJg_8latitude5testss_31test_run_document_no_version_id0B5_
FNDA:1,_RNCNvNtCsaBorPZtlsJg_8latitude5testss_26test_latitude_event_stream0B5_
FNDA:1,_RNCNvNtCsaBorPZtlsJg_8latitude5testss_26test_provider_event_stream0B5_
FNDA:1,_RNCNvNtCsaBorPZtlsJg_8latitude5testss_25test_unknown_event_stream0B5_
FNDA:1,_RNCNvNtCsaBorPZtlsJg_8latitude5testss_29test_streaming_error_handling0B5_
FNDA:1,_RNCNCNvNtCsaBorPZtlsJg_8latitude5testss_29test_streaming_error_handling00B7_
FNDA:1,_RNCNvMCsaBorPZtlsJg_8latitudeNtB4_6Client3new0B4_
FNDA:1,_RINvMCsaBorPZtlsJg_8latitudeNtB3_6Client3runNtNCNvNtB3_5testss_30test_run_document_with_options06ParamsEB3_
FNDA:7,_RINvMCsaBorPZtlsJg_8latitudeNtB3_6Client3runuEB3_
FNDA:1,_RNCINvMCsaBorPZtlsJg_8latitudeNtB5_6Client3runNtNCNvNtB5_5testss_30test_run_document_with_options06ParamsE0B5_
FNDA:7,_RNCINvMCsaBorPZtlsJg_8latitudeNtB5_6Client3runuE0B5_
FNDA:1,_RNCNCINvMCsaBorPZtlsJg_8latitudeNtB7_6Client3runNtNCNvNtB7_5testss_30test_run_document_with_options06ParamsE00B7_
FNDA:0,_RNCNCINvMCsaBorPZtlsJg_8latitudeNtB7_6Client3runuE00B7_
FNDA:0,_RNCNCINvMCsaBorPZtlsJg_8latitudeNtB7_6Client3runNtNCNvNtB7_5testss_30test_run_document_with_options06ParamsE0s_0B7_
FNDA:1,_RNCNCINvMCsaBorPZtlsJg_8latitudeNtB7_6Client3runuE0s_0B7_
FNDA:1,_RNCNCINvMCsaBorPZtlsJg_8latitudeNtB7_6Client3runNtNCNvNtB7_5testss_30test_run_document_with_options06ParamsE0s0_0B7_
FNDA:0,_RNCNCINvMCsaBorPZtlsJg_8latitudeNtB7_6Client3runuE0s0_0B7_
FNDA:0,_RNCNCINvMCsaBorPZtlsJg_8latitudeNtB7_6Client3runNtNCNvNtB7_5testss_30test_run_document_with_options06ParamsE0s1_0B7_
FNDA:1,_RNCNCINvMCsaBorPZtlsJg_8latitudeNtB7_6Client3runuE0s1_0B7_
FNDA:0,_RNCNCINvMCsaBorPZtlsJg_8latitudeNtB7_6Client3runNtNCNvNtB7_5testss_30test_run_document_with_options06ParamsE0s2_0B7_
FNDA:4,_RNCNCINvMCsaBorPZtlsJg_8latitudeNtB7_6Client3runuE0s2_0B7_
FNDA:0,_RNCNCNCINvMCsaBorPZtlsJg_8latitudeNtB9_6Client3runNtNCNvNtB9_5testss_30test_run_document_with_options06ParamsE0s2_00B9_
FNDA:4,_RNCNCNCINvMCsaBorPZtlsJg_8latitudeNtB9_6Client3runuE0s2_00B9_
FNDA:0,_RNCNCNCNCINvMCsaBorPZtlsJg_8latitudeNtBb_6Client3runNtNCNvNtBb_5testss_30test_run_document_with_options06ParamsE0s2_000Bb_
FNDA:0,_RNCNCNCNCINvMCsaBorPZtlsJg_8latitudeNtBb_6Client3runuE0s2_000Bb_
FNF:57
FNH:48
DA:115,11
DA:116,11
DA:117,11
DA:118,11
DA:119,11
DA:120,11
DA:121,11
DA:122,11
DA:123,11
DA:124,11
DA:125,11
DA:126,11
DA:127,11
DA:128,11
DA:129,11
DA:130,11
DA:131,11
DA:132,11
DA:133,11
DA:134,11
DA:135,11
DA:136,11
DA:137,11
DA:138,11
DA:139,11
DA:140,11
DA:141,11
DA:158,10
DA:159,10
DA:160,10
DA:161,10
DA:162,10
DA:163,10
DA:164,10
DA:165,10
DA:246,8
DA:247,8
DA:248,8
DA:249,8
DA:250,8
DA:251,8
DA:252,8
DA:253,8
DA:254,8
DA:255,8
DA:257,7
DA:258,7
DA:259,7
DA:260,7
DA:261,7
DA:262,7
DA:263,7
DA:264,7
DA:265,7
DA:266,7
DA:267,7
DA:268,7
DA:269,7
DA:271,21
DA:273,7
DA:275,7
DA:276,4
DA:277,4
DA:278,4
DA:279,4
DA:280,4
DA:281,4
DA:282,4
DA:283,4
DA:284,4
DA:286,8
DA:287,4
DA:288,4
DA:289,4
DA:290,4
DA:291,4
DA:292,1
DA:293,1
DA:294,3
DA:295,1
DA:296,1
DA:297,2
DA:300,4
DA:301,4
DA:302,0
DA:303,4
DA:304,0
DA:306,0
DA:307,0
DA:308,0
DA:309,0
DA:313,4
DA:314,4
DA:315,4
DA:316,3
DA:317,3
DA:318,3
DA:319,3
DA:320,0
DA:321,3
DA:322,3
DA:323,8
DA:325,0
DA:326,0
DA:329,0
DA:330,0
DA:333,0
DA:334,0
DA:337,0
DA:338,0
DA:341,16
DA:342,16
DA:344,1
DA:347,1
DA:349,1
DA:351,1
DA:353,1
DA:354,1
DA:355,1
DA:356,1
DA:357,1
DA:358,9
DA:360,16
DA:390,9
DA:391,9
DA:392,9
DA:393,9
DA:410,9
DA:411,9
DA:412,9
DA:413,9
DA:430,9
DA:431,9
DA:432,9
DA:433,9
DA:449,10
DA:450,10
DA:451,10
DA:452,10
DA:453,10
DA:454,10
DA:455,10
DA:456,10
DA:474,6
DA:475,6
DA:476,6
DA:477,6
DA:478,6
DA:479,6
DA:480,6
DA:481,6
DA:482,5
DA:483,5
DA:484,6
DA:485,5
DA:486,5
DA:487,6
DA:488,5
DA:489,5
DA:491,6
DA:492,6
DA:494,3
DA:495,3
DA:496,3
DA:497,3
DA:498,3
DA:499,3
DA:500,3
DA:501,3
DA:503,0
DA:504,0
DA:505,0
DA:506,0
DA:507,0
DA:509,0
DA:510,0
DA:513,3
DA:516,3
DA:517,3
DA:518,3
DA:519,3
DA:520,3
DA:521,3
DA:522,3
DA:523,3
DA:524,3
DA:525,3
DA:526,3
DA:527,3
DA:528,3
DA:529,3
DA:530,3
DA:531,3
DA:532,3
DA:533,3
DA:534,3
DA:537,3
DA:538,3
DA:539,3
DA:540,3
DA:541,3
DA:542,3
DA:543,3
DA:544,3
DA:545,3
DA:546,3
DA:547,3
DA:548,3
DA:549,3
DA:550,3
DA:553,1
DA:554,1
DA:555,1
DA:556,1
DA:557,1
DA:558,1
DA:559,1
DA:560,1
DA:561,1
DA:562,1
DA:563,1
DA:564,1
DA:565,1
DA:568,1
DA:569,1
DA:570,1
DA:571,1
DA:572,1
DA:573,1
DA:574,1
DA:575,1
DA:578,1
DA:579,1
DA:580,1
DA:581,1
DA:582,1
DA:583,1
DA:584,1
DA:585,1
DA:586,1
DA:587,1
DA:588,1
DA:589,1
DA:590,1
DA:593,1
DA:594,5
DA:595,1
DA:596,1
DA:597,1
DA:598,1
DA:599,1
DA:600,1
DA:601,1
DA:602,1
DA:603,1
DA:604,1
DA:605,1
DA:606,1
DA:607,1
DA:608,1
DA:609,3
DA:610,1
DA:611,1
DA:612,1
DA:615,1
DA:616,5
DA:617,1
DA:618,1
DA:619,1
DA:620,1
DA:621,1
DA:622,1
DA:623,1
DA:624,1
DA:625,1
DA:626,1
DA:627,1
DA:628,1
DA:629,1
DA:630,1
DA:631,1
DA:632,1
DA:633,1
DA:634,1
DA:635,1
DA:636,1
DA:637,1
DA:638,1
DA:639,1
DA:640,1
DA:641,1
DA:642,1
DA:643,1
DA:644,1
DA:645,1
DA:646,1
DA:647,3
DA:648,1
DA:649,1
DA:650,1
DA:653,1
DA:654,4
DA:655,1
DA:656,1
DA:657,1
DA:658,1
DA:659,1
DA:660,1
DA:661,1
DA:662,1
DA:663,1
DA:664,1
DA:665,1
DA:666,1
DA:667,1
DA:668,1
DA:671,1
DA:672,5
DA:673,1
DA:674,1
DA:675,1
DA:676,1
DA:677,1
DA:678,1
DA:679,1
DA:680,1
DA:681,1
DA:682,3
DA:683,1
DA:684,1
DA:685,1
DA:688,1
DA:689,1
DA:690,4
DA:691,1
DA:692,1
DA:693,1
DA:694,1
DA:695,1
DA:696,1
DA:697,1
DA:698,1
DA:699,1
DA:700,1
DA:701,1
DA:702,1
DA:703,1
DA:704,1
DA:705,1
DA:706,1
DA:707,1
DA:708,1
DA:709,1
DA:710,1
DA:711,3
DA:712,1
DA:713,1
DA:714,1
DA:715,1
DA:716,1
DA:717,1
DA:718,1
DA:719,1
DA:720,1
DA:721,1
DA:722,1
DA:723,1
DA:724,1
DA:725,1
DA:726,1
DA:727,1
DA:728,1
DA:729,1
DA:730,1
DA:731,1
DA:732,1
DA:733,1
DA:734,1
DA:735,1
DA:736,1
DA:737,1
DA:738,1
DA:739,1
DA:740,1
DA:741,1
DA:742,1
DA:743,1
DA:744,1
DA:745,1
DA:746,1
DA:749,1
DA:750,1
DA:751,3
DA:752,1
DA:753,1
DA:754,1
DA:755,1
DA:756,1
DA:757,1
DA:758,1
DA:759,1
DA:760,1
DA:761,1
DA:762,1
DA:763,1
DA:764,1
DA:765,1
DA:766,1
DA:767,1
DA:768,1
DA:769,1
DA:770,1
DA:771,1
DA:772,1
DA:773,3
DA:774,1
DA:775,1
DA:776,1
DA:777,1
DA:778,1
DA:779,1
DA:780,1
DA:781,1
DA:782,1
DA:783,1
DA:784,1
DA:785,1
DA:786,1
DA:787,1
DA:788,1
DA:789,1
DA:790,1
DA:791,1
DA:792,1
DA:793,1
DA:794,1
DA:795,1
DA:796,1
DA:797,1
DA:800,1
DA:801,1
DA:802,4
DA:803,1
DA:804,1
DA:805,1
DA:806,1
DA:807,1
DA:808,1
DA:809,1
DA:810,1
DA:811,1
DA:812,1
DA:813,1
DA:814,1
DA:815,1
DA:816,1
DA:817,1
DA:818,1
DA:819,1
DA:820,1
DA:821,1
DA:822,1
DA:823,1
DA:824,3
DA:825,1
DA:826,1
DA:827,1
DA:828,1
DA:829,1
DA:830,1
DA:831,1
DA:832,1
DA:833,1
DA:834,1
DA:835,1
DA:836,1
DA:837,1
DA:838,1
DA:839,1
DA:840,1
DA:841,1
DA:842,1
DA:843,1
DA:846,1
DA:847,1
DA:848,3
DA:849,1
DA:850,1
DA:851,1
DA:852,1
DA:853,1
DA:854,1
DA:855,1
DA:856,1
DA:857,1
DA:858,1
DA:859,1
DA:860,1
DA:861,1
DA:862,1
DA:863,1
DA:864,1
DA:865,1
DA:866,1
DA:867,1
DA:868,1
DA:869,1
DA:870,1
DA:871,3
DA:872,1
DA:873,1
DA:874,1
DA:875,1
DA:876,1
DA:877,1
DA:878,1
DA:879,1
DA:880,0
DA:881,0
DA:882,0
DA:883,0
DA:884,1
DA:885,1
DA:886,1
DA:887,1
DA:888,1
DA:889,1
DA:890,1
DA:891,1
DA:892,1
DA:893,1
DA:894,1
DA:897,1
DA:898,1
DA:899,1
DA:900,1
DA:901,1
DA:906,1
DA:907,1
DA:908,1
DA:913,1
DA:914,1
DA:915,1
DA:920,1
DA:921,1
DA:922,1
DA:927,1
DA:928,1
DA:929,1
DA:934,1
DA:935,1
DA:936,1
DA:941,1
DA:942,1
DA:943,1
DA:950,1
DA:951,1
DA:954,1
DA:955,1
DA:956,1
BRF:0
BRH:0
LF:832
LH:787
end_of_record
SF:H:\Projects\Latitude\latitude-rs\src\models\document.rs
FN:12,_RNvXNvXNvNtNtCsaBorPZtlsJg_8latitude6models8document1__INtB7_11RunDocumentpENtNtCsjYLpgt1qNsr_5serde2de11Deserialize11deserializeNtB2_14___FieldVisitorNtB1e_7Visitor9expecting
FN:12,_RINvXNvXNvNtNtCsaBorPZtlsJg_8latitude6models8document1__INtB8_11RunDocumentpENtNtCsjYLpgt1qNsr_5serde2de11Deserialize11deserializeNtB3_14___FieldVisitorNtB1f_7Visitor9visit_u64pEBc_
FN:12,_RINvXNvXNvNtNtCsaBorPZtlsJg_8latitude6models8document1__INtB8_11RunDocumentpENtNtCsjYLpgt1qNsr_5serde2de11Deserialize11deserializeNtB3_14___FieldVisitorNtB1f_7Visitor9visit_strpEBc_
FN:12,_RINvXNvXNvNtNtCsaBorPZtlsJg_8latitude6models8document1__INtB8_11RunDocumentpENtNtCsjYLpgt1qNsr_5serde2de11Deserialize11deserializeNtB3_14___FieldVisitorNtB1f_7Visitor11visit_bytespEBc_
FN:12,_RINvXs_NvXNvNtNtCsaBorPZtlsJg_8latitude6models8document1__INtBa_11RunDocumentpENtNtCsjYLpgt1qNsr_5serde2de11Deserialize11deserializeNtB5_7___FieldB1f_11deserializepEBe_
FN:12,_RNvXININvXNvNtNtCsaBorPZtlsJg_8latitude6models8document1__INtBa_11RunDocumentpENtNtCsjYLpgt1qNsr_5serde2de11Deserialize11deserializes0_0pEINtB5_9___VisitorpENtB1h_7Visitor9expectingBe_
FN:12,_RINvXININvXNvNtNtCsaBorPZtlsJg_8latitude6models8document1__INtBb_11RunDocumentpENtNtCsjYLpgt1qNsr_5serde2de11Deserialize11deserializes0_0pEINtB6_9___VisitorpENtB1i_7Visitor9visit_seqpEBf_
FN:12,_RINvXININvXNvNtNtCsaBorPZtlsJg_8latitude6models8document1__INtBb_11RunDocumentpENtNtCsjYLpgt1qNsr_5serde2de11Deserialize11deserializes0_0pEINtB6_9___VisitorpENtB1i_7Visitor9visit_mappEBf_
FN:36,_RNvMNtNtCsaBorPZtlsJg_8latitude6models8documentINtB2_11RunDocumentpE3newB6_
FN:44,_RNCNvMNtNtCsaBorPZtlsJg_8latitude6models8documentINtB4_11RunDocumentpE3new0B8_
FN:147,_RNvXNvXNvNtNtCsaBorPZtlsJg_8latitude6models8documents0_1__NtB7_11RunResponseNtNtCsjYLpgt1qNsr_5serde2de11Deserialize11deserializeNtB2_14___FieldVisitorNtB1e_7Visitor9expecting
FN:147,_RINvXNvXNvNtNtCsaBorPZtlsJg_8latitude6models8documents0_1__NtB8_11RunResponseNtNtCsjYLpgt1qNsr_5serde2de11Deserialize11deserializeNtB3_14___FieldVisitorNtB1f_7Visitor9visit_u64pEBc_
FN:147,_RINvXNvXNvNtNtCsaBorPZtlsJg_8latitude6models8documents0_1__NtB8_11RunResponseNtNtCsjYLpgt1qNsr_5serde2de11Deserialize11deserializeNtB3_14___FieldVisitorNtB1f_7Visitor11visit_bytespEBc_
FN:154,_RNvXNvXNvNtNtCsaBorPZtlsJg_8latitude6models8documents1_1__NtB7_14ResponseDetailNtNtCsjYLpgt1qNsr_5serde2de11Deserialize11deserializeNtB2_14___FieldVisitorNtB1h_7Visitor9expecting
FN:154,_RINvXNvXNvNtNtCsaBorPZtlsJg_8latitude6models8documents1_1__NtB8_14ResponseDetailNtNtCsjYLpgt1qNsr_5serde2de11Deserialize11deserializeNtB3_14___FieldVisitorNtB1i_7Visitor9visit_u64pEBc_
FN:154,_RINvXNvXNvNtNtCsaBorPZtlsJg_8latitude6models8documents1_1__NtB8_14ResponseDetailNtNtCsjYLpgt1qNsr_5serde2de11Deserialize11deserializeNtB3_14___FieldVisitorNtB1i_7Visitor11visit_bytespEBc_
FN:161,_RNvXNvXNvNtNtCsaBorPZtlsJg_8latitude6models8documents2_1__NtB7_11UsageDetailNtNtCsjYLpgt1qNsr_5serde2de11Deserialize11deserializeNtB2_14___FieldVisitorNtB1e_7Visitor9expecting
FN:161,_RINvXNvXNvNtNtCsaBorPZtlsJg_8latitude6models8documents2_1__NtB8_11UsageDetailNtNtCsjYLpgt1qNsr_5serde2de11Deserialize11deserializeNtB3_14___FieldVisitorNtB1f_7Visitor9visit_u64pEBc_
FN:161,_RINvXNvXNvNtNtCsaBorPZtlsJg_8latitude6models8documents2_1__NtB8_11UsageDetailNtNtCsjYLpgt1qNsr_5serde2de11Deserialize11deserializeNtB3_14___FieldVisitorNtB1f_7Visitor11visit_bytespEBc_
FN:147,_RNvXs0_NvXNvNtNtCsaBorPZtlsJg_8latitude6models8documents0_1__NtBa_11RunResponseNtNtCsjYLpgt1qNsr_5serde2de11Deserialize11deserializeNtB5_9___VisitorNtB1h_7Visitor9expecting
FN:154,_RNvXs0_NvXNvNtNtCsaBorPZtlsJg_8latitude6models8documents1_1__NtBa_14ResponseDetailNtNtCsjYLpgt1qNsr_5serde2de11Deserialize11deserializeNtB5_9___VisitorNtB1k_7Visitor9expecting
FN:161,_RNvXs0_NvXNvNtNtCsaBorPZtlsJg_8latitude6models8documents2_1__NtBa_11UsageDetailNtNtCsjYLpgt1qNsr_5serde2de11Deserialize11deserializeNtB5_9___VisitorNtB1h_7Visitor9expecting
FN:50,_RNvMNtNtCsaBorPZtlsJg_8latitude6models8documentINtB2_11RunDocumentNtNCNvNtB6_5testss_30test_run_document_with_options06ParamsE7builderB6_
FN:50,_RNvMNtNtCsaBorPZtlsJg_8latitude6models8documentINtB2_11RunDocumentuE7builderB6_
FN:73,_RNvXs_NtNtCsaBorPZtlsJg_8latitude6models8documentINtB4_18RunDocumentBuilderNtNCNvNtB8_5testss_30test_run_document_with_options06ParamsENtNtCs3LnWLHyH425_4core7default7Default7defaultB8_
FN:73,_RNvXs_NtNtCsaBorPZtlsJg_8latitude6models8documentINtB4_18RunDocumentBuilderuENtNtCs3LnWLHyH425_4core7default7Default7defaultB8_
FN:92,_RNvMs0_NtNtCsaBorPZtlsJg_8latitude6models8documentINtB5_18RunDocumentBuilderNtNCNvNtB9_5testss_30test_run_document_with_options06ParamsE4pathB9_
FN:92,_RNvMs0_NtNtCsaBorPZtlsJg_8latitude6models8documentINtB5_18RunDocumentBuilderuE4pathB9_
FN:102,_RNvMs0_NtNtCsaBorPZtlsJg_8latitude6models8documentINtB5_18RunDocumentBuilderNtNCNvNtB9_5testss_30test_run_document_with_options06ParamsE10parametersB9_
FN:112,_RNvMs0_NtNtCsaBorPZtlsJg_8latitude6models8documentINtB5_18RunDocumentBuilderuE6streamB9_
FN:121,_RNvMs0_NtNtCsaBorPZtlsJg_8latitude6models8documentINtB5_18RunDocumentBuilderNtNCNvNtB9_5testss_30test_run_document_with_options06ParamsE7optionsB9_
FN:134,_RNvMs0_NtNtCsaBorPZtlsJg_8latitude6models8documentINtB5_18RunDocumentBuilderNtNCNvNtB9_5testss_30test_run_document_with_options06ParamsE5buildB9_
FN:134,_RNvMs0_NtNtCsaBorPZtlsJg_8latitude6models8documentINtB5_18RunDocumentBuilderuE5buildB9_
FN:147,_RINvXNvXNvNtNtCsaBorPZtlsJg_8latitude6models8documents0_1__NtB8_11RunResponseNtNtCsjYLpgt1qNsr_5serde2de11Deserialize11deserializeNtB3_14___FieldVisitorNtB1f_7Visitor9visit_strNtNtCs51Ps0ib0oUr_10serde_json5error5ErrorEBc_
FN:147,_RINvXs_NvXNvNtNtCsaBorPZtlsJg_8latitude6models8documents0_1__NtBa_11RunResponseNtNtCsjYLpgt1qNsr_5serde2de11Deserialize11deserializeNtB5_7___FieldB1f_11deserializeINtNtCs51Ps0ib0oUr_10serde_json2de6MapKeyNtNtB2G_4read9SliceReadEEBe_
FN:147,_RINvXs0_NvXNvNtNtCsaBorPZtlsJg_8latitude6models8documents0_1__NtBb_11RunResponseNtNtCsjYLpgt1qNsr_5serde2de11Deserialize11deserializeNtB6_9___VisitorNtB1i_7Visitor9visit_seqINtNtCs51Ps0ib0oUr_10serde_json2de9SeqAccessNtNtB2Q_4read9SliceReadEEBf_
FN:147,_RINvXs0_NvXNvNtNtCsaBorPZtlsJg_8latitude6models8documents0_1__NtBb_11RunResponseNtNtCsjYLpgt1qNsr_5serde2de11Deserialize11deserializeNtB6_9___VisitorNtB1i_7Visitor9visit_mapINtNtCs51Ps0ib0oUr_10serde_json2de9MapAccessNtNtB2Q_4read9SliceReadEEBf_
FN:154,_RINvXNvXNvNtNtCsaBorPZtlsJg_8latitude6models8documents1_1__NtB8_14ResponseDetailNtNtCsjYLpgt1qNsr_5serde2de11Deserialize11deserializeNtB3_14___FieldVisitorNtB1i_7Visitor9visit_strNtNtCs51Ps0ib0oUr_10serde_json5error5ErrorEBc_
FN:154,_RINvXs_NvXNvNtNtCsaBorPZtlsJg_8latitude6models8documents1_1__NtBa_14ResponseDetailNtNtCsjYLpgt1qNsr_5serde2de11Deserialize11deserializeNtB5_7___FieldB1i_11deserializeINtNtCs51Ps0ib0oUr_10serde_json2de6MapKeyNtNtB2J_4read9SliceReadEEBe_
FN:154,_RINvXs0_NvXNvNtNtCsaBorPZtlsJg_8latitude6models8documents1_1__NtBb_14ResponseDetailNtNtCsjYLpgt1qNsr_5serde2de11Deserialize11deserializeNtB6_9___VisitorNtB1l_7Visitor9visit_seqINtNtCs51Ps0ib0oUr_10serde_json2de9SeqAccessNtNtB2T_4read9SliceReadEEBf_
FN:154,_RINvXs0_NvXNvNtNtCsaBorPZtlsJg_8latitude6models8documents1_1__NtBb_14ResponseDetailNtNtCsjYLpgt1qNsr_5serde2de11Deserialize11deserializeNtB6_9___VisitorNtB1l_7Visitor9visit_mapINtNtCs51Ps0ib0oUr_10serde_json2de9MapAccessNtNtB2T_4read9SliceReadEEBf_
FN:161,_RINvXNvXNvNtNtCsaBorPZtlsJg_8latitude6models8documents2_1__NtB8_11UsageDetailNtNtCsjYLpgt1qNsr_5serde2de11Deserialize11deserializeNtB3_14___FieldVisitorNtB1f_7Visitor9visit_strNtNtCs51Ps0ib0oUr_10serde_json5error5ErrorEBc_
FN:161,_RINvXs_NvXNvNtNtCsaBorPZtlsJg_8latitude6models8documents2_1__NtBa_11UsageDetailNtNtCsjYLpgt1qNsr_5serde2de11Deserialize11deserializeNtB5_7___FieldB1f_11deserializeINtNtCs51Ps0ib0oUr_10serde_json2de6MapKeyNtNtB2G_4read9SliceReadEEBe_
FN:161,_RINvXs0_NvXNvNtNtCsaBorPZtlsJg_8latitude6models8documents2_1__NtBb_11UsageDetailNtNtCsjYLpgt1qNsr_5serde2de11Deserialize11deserializeNtB6_9___VisitorNtB1i_7Visitor9visit_seqINtNtCs51Ps0ib0oUr_10serde_json2de9SeqAccessNtNtB2Q_4read9SliceReadEEBf_
FN:161,_RINvXs0_NvXNvNtNtCsaBorPZtlsJg_8latitude6models8documents2_1__NtBb_11UsageDetailNtNtCsjYLpgt1qNsr_5serde2de11Deserialize11deserializeNtB6_9___VisitorNtB1i_7Visitor9visit_mapINtNtCs51Ps0ib0oUr_10serde_json2de9MapAccessNtNtB2Q_4read9SliceReadEEBf_
FNDA:0,_RNvXNvXNvNtNtCsaBorPZtlsJg_8latitude6models8document1__INtB7_11RunDocumentpENtNtCsjYLpgt1qNsr_5serde2de11Deserialize11deserializeNtB2_14___FieldVisitorNtB1e_7Visitor9expecting
FNDA:0,_RINvXNvXNvNtNtCsaBorPZtlsJg_8latitude6models8document1__INtB8_11RunDocumentpENtNtCsjYLpgt1qNsr_5serde2de11Deserialize11deserializeNtB3_14___FieldVisitorNtB1f_7Visitor9visit_u64pEBc_
FNDA:0,_RINvXNvXNvNtNtCsaBorPZtlsJg_8latitude6models8document1__INtB8_11RunDocumentpENtNtCsjYLpgt1qNsr_5serde2de11Deserialize11deserializeNtB3_14___FieldVisitorNtB1f_7Visitor9visit_strpEBc_
FNDA:0,_RINvXNvXNvNtNtCsaBorPZtlsJg_8latitude6models8document1__INtB8_11RunDocumentpENtNtCsjYLpgt1qNsr_5serde2de11Deserialize11deserializeNtB3_14___FieldVisitorNtB1f_7Visitor11visit_bytespEBc_
FNDA:0,_RINvXs_NvXNvNtNtCsaBorPZtlsJg_8latitude6models8document1__INtBa_11RunDocumentpENtNtCsjYLpgt1qNsr_5serde2de11Deserialize11deserializeNtB5_7___FieldB1f_11deserializepEBe_
FNDA:0,_RNvXININvXNvNtNtCsaBorPZtlsJg_8latitude6models8document1__INtBa_11RunDocumentpENtNtCsjYLpgt1qNsr_5serde2de11Deserialize11deserializes0_0pEINtB5_9___VisitorpENtB1h_7Visitor9expectingBe_
FNDA:0,_RINvXININvXNvNtNtCsaBorPZtlsJg_8latitude6models8document1__INtBb_11RunDocumentpENtNtCsjYLpgt1qNsr_5serde2de11Deserialize11deserializes0_0pEINtB6_9___VisitorpENtB1i_7Visitor9visit_seqpEBf_
FNDA:0,_RINvXININvXNvNtNtCsaBorPZtlsJg_8latitude6models8document1__INtBb_11RunDocumentpENtNtCsjYLpgt1qNsr_5serde2de11Deserialize11deserializes0_0pEINtB6_9___VisitorpENtB1i_7Visitor9visit_mappEBf_
FNDA:0,_RNvMNtNtCsaBorPZtlsJg_8latitude6models8documentINtB2_11RunDocumentpE3newB6_
FNDA:0,_RNCNvMNtNtCsaBorPZtlsJg_8latitude6models8documentINtB4_11RunDocumentpE3new0B8_
FNDA:0,_RNvXNvXNvNtNtCsaBorPZtlsJg_8latitude6models8documents0_1__NtB7_11RunResponseNtNtCsjYLpgt1qNsr_5serde2de11Deserialize11deserializeNtB2_14___FieldVisitorNtB1e_7Visitor9expecting
FNDA:0,_RINvXNvXNvNtNtCsaBorPZtlsJg_8latitude6models8documents0_1__NtB8_11RunResponseNtNtCsjYLpgt1qNsr_5serde2de11Deserialize11deserializeNtB3_14___FieldVisitorNtB1f_7Visitor9visit_u64pEBc_
FNDA:0,_RINvXNvXNvNtNtCsaBorPZtlsJg_8latitude6models8documents0_1__NtB8_11RunResponseNtNtCsjYLpgt1qNsr_5serde2de11Deserialize11deserializeNtB3_14___FieldVisitorNtB1f_7Visitor11visit_bytespEBc_
FNDA:0,_RNvXNvXNvNtNtCsaBorPZtlsJg_8latitude6models8documents1_1__NtB7_14ResponseDetailNtNtCsjYLpgt1qNsr_5serde2de11Deserialize11deserializeNtB2_14___FieldVisitorNtB1h_7Visitor9expecting
FNDA:0,_RINvXNvXNvNtNtCsaBorPZtlsJg_8latitude6models8documents1_1__NtB8_14ResponseDetailNtNtCsjYLpgt1qNsr_5serde2de11Deserialize11deserializeNtB3_14___FieldVisitorNtB1i_7Visitor9visit_u64pEBc_
FNDA:0,_RINvXNvXNvNtNtCsaBorPZtlsJg_8latitude6models8documents1_1__NtB8_14ResponseDetailNtNtCsjYLpgt1qNsr_5serde2de11Deserialize11deserializeNtB3_14___FieldVisitorNtB1i_7Visitor11visit_bytespEBc_
FNDA:0,_RNvXNvXNvNtNtCsaBorPZtlsJg_8latitude6models8documents2_1__NtB7_11UsageDetailNtNtCsjYLpgt1qNsr_5serde2de11Deserialize11deserializeNtB2_14___FieldVisitorNtB1e_7Visitor9expecting
FNDA:0,_RINvXNvXNvNtNtCsaBorPZtlsJg_8latitude6models8documents2_1__NtB8_11UsageDetailNtNtCsjYLpgt1qNsr_5serde2de11Deserialize11deserializeNtB3_14___FieldVisitorNtB1f_7Visitor9visit_u64pEBc_
FNDA:0,_RINvXNvXNvNtNtCsaBorPZtlsJg_8latitude6models8documents2_1__NtB8_11UsageDetailNtNtCsjYLpgt1qNsr_5serde2de11Deserialize11deserializeNtB3_14___FieldVisitorNtB1f_7Visitor11visit_bytespEBc_
FNDA:0,_RNvXs0_NvXNvNtNtCsaBorPZtlsJg_8latitude6models8documents0_1__NtBa_11RunResponseNtNtCsjYLpgt1qNsr_5serde2de11Deserialize11deserializeNtB5_9___VisitorNtB1h_7Visitor9expecting
FNDA:0,_RNvXs0_NvXNvNtNtCsaBorPZtlsJg_8latitude6models8documents1_1__NtBa_14ResponseDetailNtNtCsjYLpgt1qNsr_5serde2de11Deserialize11deserializeNtB5_9___VisitorNtB1k_7Visitor9expecting
FNDA:0,_RNvXs0_NvXNvNtNtCsaBorPZtlsJg_8latitude6models8documents2_1__NtBa_11UsageDetailNtNtCsjYLpgt1qNsr_5serde2de11Deserialize11deserializeNtB5_9___VisitorNtB1h_7Visitor9expecting
FNDA:1,_RNvMNtNtCsaBorPZtlsJg_8latitude6models8documentINtB2_11RunDocumentNtNCNvNtB6_5testss_30test_run_document_with_options06ParamsE7builderB6_
FNDA:7,_RNvMNtNtCsaBorPZtlsJg_8latitude6models8documentINtB2_11RunDocumentuE7builderB6_
FNDA:1,_RNvXs_NtNtCsaBorPZtlsJg_8latitude6models8documentINtB4_18RunDocumentBuilderNtNCNvNtB8_5testss_30test_run_document_with_options06ParamsENtNtCs3LnWLHyH425_4core7default7Default7defaultB8_
FNDA:7,_RNvXs_NtNtCsaBorPZtlsJg_8latitude6models8documentINtB4_18RunDocumentBuilderuENtNtCs3LnWLHyH425_4core7default7Default7defaultB8_
FNDA:1,_RNvMs0_NtNtCsaBorPZtlsJg_8latitude6models8documentINtB5_18RunDocumentBuilderNtNCNvNtB9_5testss_30test_run_document_with_options06ParamsE4pathB9_
FNDA:7,_RNvMs0_NtNtCsaBorPZtlsJg_8latitude6models8documentINtB5_18RunDocumentBuilderuE4pathB9_
FNDA:1,_RNvMs0_NtNtCsaBorPZtlsJg_8latitude6models8documentINtB5_18RunDocumentBuilderNtNCNvNtB9_5testss_30test_run_document_with_options06ParamsE10parametersB9_
FNDA:4,_RNvMs0_NtNtCsaBorPZtlsJg_8latitude6models8documentINtB5_18RunDocumentBuilderuE6streamB9_
FNDA:1,_RNvMs0_NtNtCsaBorPZtlsJg_8latitude6models8documentINtB5_18RunDocumentBuilderNtNCNvNtB9_5testss_30test_run_document_with_options06ParamsE7optionsB9_
FNDA:1,_RNvMs0_NtNtCsaBorPZtlsJg_8latitude6models8documentINtB5_18RunDocumentBuilderNtNCNvNtB9_5testss_30test_run_document_with_options06ParamsE5buildB9_
FNDA:7,_RNvMs0_NtNtCsaBorPZtlsJg_8latitude6models8documentINtB5_18RunDocumentBuilderuE5buildB9_
FNDA:6,_RINvXNvXNvNtNtCsaBorPZtlsJg_8latitude6models8documents0_1__NtB8_11RunResponseNtNtCsjYLpgt1qNsr_5serde2de11Deserialize11deserializeNtB3_14___FieldVisitorNtB1f_7Visitor9visit_strNtNtCs51Ps0ib0oUr_10serde_json5error5ErrorEBc_
FNDA:6,_RINvXs_NvXNvNtNtCsaBorPZtlsJg_8latitude6models8documents0_1__NtBa_11RunResponseNtNtCsjYLpgt1qNsr_5serde2de11Deserialize11deserializeNtB5_7___FieldB1f_11deserializeINtNtCs51Ps0ib0oUr_10serde_json2de6MapKeyNtNtB2G_4read9SliceReadEEBe_
FNDA:0,_RINvXs0_NvXNvNtNtCsaBorPZtlsJg_8latitude6models8documents0_1__NtBb_11RunResponseNtNtCsjYLpgt1qNsr_5serde2de11Deserialize11deserializeNtB6_9___VisitorNtB1i_7Visitor9visit_seqINtNtCs51Ps0ib0oUr_10serde_json2de9SeqAccessNtNtB2Q_4read9SliceReadEEBf_
FNDA:3,_RINvXs0_NvXNvNtNtCsaBorPZtlsJg_8latitude6models8documents0_1__NtBb_11RunResponseNtNtCsjYLpgt1qNsr_5serde2de11Deserialize11deserializeNtB6_9___VisitorNtB1i_7Visitor9visit_mapINtNtCs51Ps0ib0oUr_10serde_json2de9MapAccessNtNtB2Q_4read9SliceReadEEBf_
FNDA:6,_RINvXNvXNvNtNtCsaBorPZtlsJg_8latitude6models8documents1_1__NtB8_14ResponseDetailNtNtCsjYLpgt1qNsr_5serde2de11Deserialize11deserializeNtB3_14___FieldVisitorNtB1i_7Visitor9visit_strNtNtCs51Ps0ib0oUr_10serde_json5error5ErrorEBc_
FNDA:6,_RINvXs_NvXNvNtNtCsaBorPZtlsJg_8latitude6models8documents1_1__NtBa_14ResponseDetailNtNtCsjYLpgt1qNsr_5serde2de11Deserialize11deserializeNtB5_7___FieldB1i_11deserializeINtNtCs51Ps0ib0oUr_10serde_json2de6MapKeyNtNtB2J_4read9SliceReadEEBe_
FNDA:0,_RINvXs0_NvXNvNtNtCsaBorPZtlsJg_8latitude6models8documents1_1__NtBb_14ResponseDetailNtNtCsjYLpgt1qNsr_5serde2de11Deserialize11deserializeNtB6_9___VisitorNtB1l_7Visitor9visit_seqINtNtCs51Ps0ib0oUr_10serde_json2de9SeqAccessNtNtB2T_4read9SliceReadEEBf_
FNDA:3,_RINvXs0_NvXNvNtNtCsaBorPZtlsJg_8latitude6models8documents1_1__NtBb_14ResponseDetailNtNtCsjYLpgt1qNsr_5serde2de11Deserialize11deserializeNtB6_9___VisitorNtB1l_7Visitor9visit_mapINtNtCs51Ps0ib0oUr_10serde_json2de9MapAccessNtNtB2T_4read9SliceReadEEBf_
FNDA:9,_RINvXNvXNvNtNtCsaBorPZtlsJg_8latitude6models8documents2_1__NtB8_11UsageDetailNtNtCsjYLpgt1qNsr_5serde2de11Deserialize11deserializeNtB3_14___FieldVisitorNtB1f_7Visitor9visit_strNtNtCs51Ps0ib0oUr_10serde_json5error5ErrorEBc_
FNDA:9,_RINvXs_NvXNvNtNtCsaBorPZtlsJg_8latitude6models8documents2_1__NtBa_11UsageDetailNtNtCsjYLpgt1qNsr_5serde2de11Deserialize11deserializeNtB5_7___FieldB1f_11deserializeINtNtCs51Ps0ib0oUr_10serde_json2de6MapKeyNtNtB2G_4read9SliceReadEEBe_
FNDA:0,_RINvXs0_NvXNvNtNtCsaBorPZtlsJg_8latitude6models8documents2_1__NtBb_11UsageDetailNtNtCsjYLpgt1qNsr_5serde2de11Deserialize11deserializeNtB6_9___VisitorNtB1i_7Visitor9visit_seqINtNtCs51Ps0ib0oUr_10serde_json2de9SeqAccessNtNtB2Q_4read9SliceReadEEBf_
FNDA:3,_RINvXs0_NvXNvNtNtCsaBorPZtlsJg_8latitude6models8documents2_1__NtBb_11UsageDetailNtNtCsjYLpgt1qNsr_5serde2de11Deserialize11deserializeNtB6_9___VisitorNtB1i_7Visitor9visit_mapINtNtCs51Ps0ib0oUr_10serde_json2de9MapAccessNtNtB2Q_4read9SliceReadEEBf_
FNF:13
FNH:10
DA:12,0
DA:36,0
DA:37,0
DA:38,0
DA:39,0
DA:40,0
DA:41,0
DA:42,0
DA:43,0
DA:44,0
DA:45,0
DA:46,0
DA:47,0
DA:48,0
DA:50,8
DA:51,8
DA:52,8
DA:73,8
DA:74,8
DA:75,8
DA:76,8
DA:77,8
DA:78,8
DA:79,8
DA:80,8
DA:92,8
DA:93,8
DA:94,8
DA:95,8
DA:102,1
DA:103,1
DA:104,1
DA:105,1
DA:112,4
DA:113,4
DA:114,4
DA:115,4
DA:121,1
DA:122,1
DA:123,1
DA:124,1
DA:134,8
DA:135,8
DA:136,8
DA:137,8
DA:138,8
DA:139,8
DA:140,8
DA:141,8
DA:143,8
DA:147,9
DA:154,9
DA:161,12
BRF:0
BRH:0
LF:54
LH:39
end_of_record
SF:H:\Projects\Latitude\latitude-rs\src\models\event.rs
FN:7,_RNvXNvXNvNtNtCsaBorPZtlsJg_8latitude6models5event1__NtB7_5EventNtNtCsjYLpgt1qNsr_5serde2de11Deserialize11deserializeNtB2_14___FieldVisitorNtB11_7Visitor9expecting
FN:7,_RINvXNvXNvNtNtCsaBorPZtlsJg_8latitude6models5event1__NtB8_5EventNtNtCsjYLpgt1qNsr_5serde2de11Deserialize11deserializeNtB3_14___FieldVisitorNtB12_7Visitor9visit_u64pEBc_
FN:7,_RINvXNvXNvNtNtCsaBorPZtlsJg_8latitude6models5event1__NtB8_5EventNtNtCsjYLpgt1qNsr_5serde2de11Deserialize11deserializeNtB3_14___FieldVisitorNtB12_7Visitor9visit_strpEBc_
FN:7,_RINvXNvXNvNtNtCsaBorPZtlsJg_8latitude6models5event1__NtB8_5EventNtNtCsjYLpgt1qNsr_5serde2de11Deserialize11deserializeNtB3_14___FieldVisitorNtB12_7Visitor11visit_bytespEBc_
FN:7,_RINvXs_NvXNvNtNtCsaBorPZtlsJg_8latitude6models5event1__NtBa_5EventNtNtCsjYLpgt1qNsr_5serde2de11Deserialize11deserializeNtB5_7___FieldB12_11deserializepEBe_
FN:7,_RNvXs0_NvXNvNtNtCsaBorPZtlsJg_8latitude6models5event1__NtBa_5EventNtNtCsjYLpgt1qNsr_5serde2de11Deserialize11deserializeNtB5_9___VisitorNtB14_7Visitor9expecting
FN:7,_RINvXs0_NvXNvNtNtCsaBorPZtlsJg_8latitude6models5event1__NtBb_5EventNtNtCsjYLpgt1qNsr_5serde2de11Deserialize11deserializeNtB6_9___VisitorNtB15_7Visitor10visit_enumpEBf_
FN:16,_RNvXNvXNvNtNtCsaBorPZtlsJg_8latitude6models5events_1__NtB7_13LatitudeEventNtNtCsjYLpgt1qNsr_5serde2de11Deserialize11deserializeNtB2_14___FieldVisitorNtB1c_7Visitor9expecting
FN:16,_RINvXNvXNvNtNtCsaBorPZtlsJg_8latitude6models5events_1__NtB8_13LatitudeEventNtNtCsjYLpgt1qNsr_5serde2de11Deserialize11deserializeNtB3_14___FieldVisitorNtB1d_7Visitor10visit_boolpEBc_
FN:16,_RINvXNvXNvNtNtCsaBorPZtlsJg_8latitude6models5events_1__NtB8_13LatitudeEventNtNtCsjYLpgt1qNsr_5serde2de11Deserialize11deserializeNtB3_14___FieldVisitorNtB1d_7Visitor8visit_i8pEBc_
FN:16,_RINvXNvXNvNtNtCsaBorPZtlsJg_8latitude6models5events_1__NtB8_13LatitudeEventNtNtCsjYLpgt1qNsr_5serde2de11Deserialize11deserializeNtB3_14___FieldVisitorNtB1d_7Visitor9visit_i16pEBc_
FN:16,_RINvXNvXNvNtNtCsaBorPZtlsJg_8latitude6models5events_1__NtB8_13LatitudeEventNtNtCsjYLpgt1qNsr_5serde2de11Deserialize11deserializeNtB3_14___FieldVisitorNtB1d_7Visitor9visit_i32pEBc_
FN:16,_RINvXNvXNvNtNtCsaBorPZtlsJg_8latitude6models5events_1__NtB8_13LatitudeEventNtNtCsjYLpgt1qNsr_5serde2de11Deserialize11deserializeNtB3_14___FieldVisitorNtB1d_7Visitor9visit_i64pEBc_
FN:16,_RINvXNvXNvNtNtCsaBorPZtlsJg_8latitude6models5events_1__NtB8_13LatitudeEventNtNtCsjYLpgt1qNsr_5serde2de11Deserialize11deserializeNtB3_14___FieldVisitorNtB1d_7Visitor8visit_u8pEBc_
FN:16,_RINvXNvXNvNtNtCsaBorPZtlsJg_8latitude6models5events_1__NtB8_13LatitudeEventNtNtCsjYLpgt1qNsr_5serde2de11Deserialize11deserializeNtB3_14___FieldVisitorNtB1d_7Visitor9visit_u16pEBc_
FN:16,_RINvXNvXNvNtNtCsaBorPZtlsJg_8latitude6models5events_1__NtB8_13LatitudeEventNtNtCsjYLpgt1qNsr_5serde2de11Deserialize11deserializeNtB3_14___FieldVisitorNtB1d_7Visitor9visit_u32pEBc_
FN:16,_RINvXNvXNvNtNtCsaBorPZtlsJg_8latitude6models5events_1__NtB8_13LatitudeEventNtNtCsjYLpgt1qNsr_5serde2de11Deserialize11deserializeNtB3_14___FieldVisitorNtB1d_7Visitor9visit_u64pEBc_
FN:16,_RINvXNvXNvNtNtCsaBorPZtlsJg_8latitude6models5events_1__NtB8_13LatitudeEventNtNtCsjYLpgt1qNsr_5serde2de11Deserialize11deserializeNtB3_14___FieldVisitorNtB1d_7Visitor9visit_f32pEBc_
FN:16,_RINvXNvXNvNtNtCsaBorPZtlsJg_8latitude6models5events_1__NtB8_13LatitudeEventNtNtCsjYLpgt1qNsr_5serde2de11Deserialize11deserializeNtB3_14___FieldVisitorNtB1d_7Visitor9visit_f64pEBc_
FN:16,_RINvXNvXNvNtNtCsaBorPZtlsJg_8latitude6models5events_1__NtB8_13LatitudeEventNtNtCsjYLpgt1qNsr_5serde2de11Deserialize11deserializeNtB3_14___FieldVisitorNtB1d_7Visitor10visit_charpEBc_
FN:16,_RINvXNvXNvNtNtCsaBorPZtlsJg_8latitude6models5events_1__NtB8_13LatitudeEventNtNtCsjYLpgt1qNsr_5serde2de11Deserialize11deserializeNtB3_14___FieldVisitorNtB1d_7Visitor10visit_unitpEBc_
FN:16,_RINvXNvXNvNtNtCsaBorPZtlsJg_8latitude6models5events_1__NtB8_13LatitudeEventNtNtCsjYLpgt1qNsr_5serde2de11Deserialize11deserializeNtB3_14___FieldVisitorNtB1d_7Visitor11visit_bytespEBc_
FN:16,_RINvXNvXNvNtNtCsaBorPZtlsJg_8latitude6models5events_1__NtB8_13LatitudeEventNtNtCsjYLpgt1qNsr_5serde2de11Deserialize11deserializeNtB3_14___FieldVisitorNtB1d_7Visitor20visit_borrowed_bytespEBc_
FN:69,_RNvXs0_NvXNvNtNtCsaBorPZtlsJg_8latitude6models5events5_1__NtBa_4RoleNtNtCsjYLpgt1qNsr_5serde2de11Deserialize11deserializeNtB5_9___VisitorNtB16_7Visitor9expecting
FN:78,_RNvXNvXNvNtNtCsaBorPZtlsJg_8latitude6models5events6_1__NtB7_7ContentNtNtCsjYLpgt1qNsr_5serde2de11Deserialize11deserializeNtB2_14___FieldVisitorNtB16_7Visitor9expecting
FN:78,_RINvXNvXNvNtNtCsaBorPZtlsJg_8latitude6models5events6_1__NtB8_7ContentNtNtCsjYLpgt1qNsr_5serde2de11Deserialize11deserializeNtB3_14___FieldVisitorNtB17_7Visitor9visit_u64pEBc_
FN:78,_RINvXNvXNvNtNtCsaBorPZtlsJg_8latitude6models5events6_1__NtB8_7ContentNtNtCsjYLpgt1qNsr_5serde2de11Deserialize11deserializeNtB3_14___FieldVisitorNtB17_7Visitor9visit_strpEBc_
FN:78,_RINvXNvXNvNtNtCsaBorPZtlsJg_8latitude6models5events6_1__NtB8_7ContentNtNtCsjYLpgt1qNsr_5serde2de11Deserialize11deserializeNtB3_14___FieldVisitorNtB17_7Visitor11visit_bytespEBc_
FN:78,_RINvXs_NvXNvNtNtCsaBorPZtlsJg_8latitude6models5events6_1__NtBa_7ContentNtNtCsjYLpgt1qNsr_5serde2de11Deserialize11deserializeNtB5_7___FieldB17_11deserializepEBe_
FN:78,_RNvXs0_NvXNvNtNtCsaBorPZtlsJg_8latitude6models5events6_1__NtBa_7ContentNtNtCsjYLpgt1qNsr_5serde2de11Deserialize11deserializeNtB5_9___VisitorNtB19_7Visitor9expecting
FN:78,_RINvXs0_NvXNvNtNtCsaBorPZtlsJg_8latitude6models5events6_1__NtBb_7ContentNtNtCsjYLpgt1qNsr_5serde2de11Deserialize11deserializeNtB6_9___VisitorNtB1a_7Visitor9visit_seqpEBf_
FN:78,_RINvXs0_NvXNvNtNtCsaBorPZtlsJg_8latitude6models5events6_1__NtBb_7ContentNtNtCsjYLpgt1qNsr_5serde2de11Deserialize11deserializeNtB6_9___VisitorNtB1a_7Visitor9visit_mappEBf_
FN:111,_RNvXNvXNvNtNtCsaBorPZtlsJg_8latitude6models5eventsa_1__NtB7_13ProviderEventNtNtCsjYLpgt1qNsr_5serde2de11Deserialize11deserializeNtB2_14___FieldVisitorNtB1d_7Visitor9expecting
FN:111,_RINvXNvXNvNtNtCsaBorPZtlsJg_8latitude6models5eventsa_1__NtB8_13ProviderEventNtNtCsjYLpgt1qNsr_5serde2de11Deserialize11deserializeNtB3_14___FieldVisitorNtB1e_7Visitor10visit_boolpEBc_
FN:111,_RINvXNvXNvNtNtCsaBorPZtlsJg_8latitude6models5eventsa_1__NtB8_13ProviderEventNtNtCsjYLpgt1qNsr_5serde2de11Deserialize11deserializeNtB3_14___FieldVisitorNtB1e_7Visitor8visit_i8pEBc_
FN:111,_RINvXNvXNvNtNtCsaBorPZtlsJg_8latitude6models5eventsa_1__NtB8_13ProviderEventNtNtCsjYLpgt1qNsr_5serde2de11Deserialize11deserializeNtB3_14___FieldVisitorNtB1e_7Visitor9visit_i16pEBc_
FN:111,_RINvXNvXNvNtNtCsaBorPZtlsJg_8latitude6models5eventsa_1__NtB8_13ProviderEventNtNtCsjYLpgt1qNsr_5serde2de11Deserialize11deserializeNtB3_14___FieldVisitorNtB1e_7Visitor9visit_i32pEBc_
FN:111,_RINvXNvXNvNtNtCsaBorPZtlsJg_8latitude6models5eventsa_1__NtB8_13ProviderEventNtNtCsjYLpgt1qNsr_5serde2de11Deserialize11deserializeNtB3_14___FieldVisitorNtB1e_7Visitor9visit_i64pEBc_
FN:111,_RINvXNvXNvNtNtCsaBorPZtlsJg_8latitude6models5eventsa_1__NtB8_13ProviderEventNtNtCsjYLpgt1qNsr_5serde2de11Deserialize11deserializeNtB3_14___FieldVisitorNtB1e_7Visitor8visit_u8pEBc_
FN:111,_RINvXNvXNvNtNtCsaBorPZtlsJg_8latitude6models5eventsa_1__NtB8_13ProviderEventNtNtCsjYLpgt1qNsr_5serde2de11Deserialize11deserializeNtB3_14___FieldVisitorNtB1e_7Visitor9visit_u16pEBc_
FN:111,_RINvXNvXNvNtNtCsaBorPZtlsJg_8latitude6models5eventsa_1__NtB8_13ProviderEventNtNtCsjYLpgt1qNsr_5serde2de11Deserialize11deserializeNtB3_14___FieldVisitorNtB1e_7Visitor9visit_u32pEBc_
FN:111,_RINvXNvXNvNtNtCsaBorPZtlsJg_8latitude6models5eventsa_1__NtB8_13ProviderEventNtNtCsjYLpgt1qNsr_5serde2de11Deserialize11deserializeNtB3_14___FieldVisitorNtB1e_7Visitor9visit_u64pEBc_
FN:111,_RINvXNvXNvNtNtCsaBorPZtlsJg_8latitude6models5eventsa_1__NtB8_13ProviderEventNtNtCsjYLpgt1qNsr_5serde2de11Deserialize11deserializeNtB3_14___FieldVisitorNtB1e_7Visitor9visit_f32pEBc_
FN:111,_RINvXNvXNvNtNtCsaBorPZtlsJg_8latitude6models5eventsa_1__NtB8_13ProviderEventNtNtCsjYLpgt1qNsr_5serde2de11Deserialize11deserializeNtB3_14___FieldVisitorNtB1e_7Visitor9visit_f64pEBc_
FN:111,_RINvXNvXNvNtNtCsaBorPZtlsJg_8latitude6models5eventsa_1__NtB8_13ProviderEventNtNtCsjYLpgt1qNsr_5serde2de11Deserialize11deserializeNtB3_14___FieldVisitorNtB1e_7Visitor10visit_charpEBc_
FN:111,_RINvXNvXNvNtNtCsaBorPZtlsJg_8latitude6models5eventsa_1__NtB8_13ProviderEventNtNtCsjYLpgt1qNsr_5serde2de11Deserialize11deserializeNtB3_14___FieldVisitorNtB1e_7Visitor10visit_unitpEBc_
FN:111,_RINvXNvXNvNtNtCsaBorPZtlsJg_8latitude6models5eventsa_1__NtB8_13ProviderEventNtNtCsjYLpgt1qNsr_5serde2de11Deserialize11deserializeNtB3_14___FieldVisitorNtB1e_7Visitor11visit_bytespEBc_
FN:111,_RINvXNvXNvNtNtCsaBorPZtlsJg_8latitude6models5eventsa_1__NtB8_13ProviderEventNtNtCsjYLpgt1qNsr_5serde2de11Deserialize11deserializeNtB3_14___FieldVisitorNtB1e_7Visitor20visit_borrowed_bytespEBc_
FN:165,_RNvXs0_NvXNvNtNtCsaBorPZtlsJg_8latitude6models5eventsg_1__NtBa_12FinishReasonNtNtCsjYLpgt1qNsr_5serde2de11Deserialize11deserializeNtB5_9___VisitorNtB1f_7Visitor9expecting
FN:16,_RINvXNvXNvNtNtCsaBorPZtlsJg_8latitude6models5events_1__NtB8_13LatitudeEventNtNtCsjYLpgt1qNsr_5serde2de11Deserialize11deserializeNtB3_14___FieldVisitorNtB1d_7Visitor9visit_strNtNtCs51Ps0ib0oUr_10serde_json5error5ErrorEBc_
FN:16,_RINvXNvXNvNtNtCsaBorPZtlsJg_8latitude6models5events_1__NtB8_13LatitudeEventNtNtCsjYLpgt1qNsr_5serde2de11Deserialize11deserializeNtB3_14___FieldVisitorNtB1d_7Visitor18visit_borrowed_strNtNtCs51Ps0ib0oUr_10serde_json5error5ErrorEBc_
FN:16,_RINvXs_NvXNvNtNtCsaBorPZtlsJg_8latitude6models5events_1__NtBa_13LatitudeEventNtNtCsjYLpgt1qNsr_5serde2de11Deserialize11deserializeNtB5_7___FieldB1d_11deserializeINtNtCs51Ps0ib0oUr_10serde_json2de6MapKeyNtNtB2E_4read9SliceReadEEBe_
FN:16,_RINvXs0_NvXNvNtNtCsaBorPZtlsJg_8latitude6models5events_1__NtBb_13LatitudeEventNtNtCsjYLpgt1qNsr_5serde2de11Deserialize11deserializeNtB6_9___VisitorNtB1g_7Visitor9visit_mapINtNtCs51Ps0ib0oUr_10serde_json2de9MapAccessNtNtB2O_4read9SliceReadEEBf_
FN:24,_RINvXNvXNvNtNtCsaBorPZtlsJg_8latitude6models5events0_1__NtB8_17LatitudeEventTypeNtNtCsjYLpgt1qNsr_5serde2de11Deserialize11deserializeNtB3_14___FieldVisitorNtB1i_7Visitor9visit_u64NtNtCs51Ps0ib0oUr_10serde_json5error5ErrorEBc_
FN:24,_RINvXNvXNvNtNtCsaBorPZtlsJg_8latitude6models5events0_1__NtB8_17LatitudeEventTypeNtNtCsjYLpgt1qNsr_5serde2de11Deserialize11deserializeNtB3_14___FieldVisitorNtB1i_7Visitor9visit_strNtNtCs51Ps0ib0oUr_10serde_json5error5ErrorEBc_
FN:24,_RINvXNvXNvNtNtCsaBorPZtlsJg_8latitude6models5events0_1__NtB8_17LatitudeEventTypeNtNtCsjYLpgt1qNsr_5serde2de11Deserialize11deserializeNtB3_14___FieldVisitorNtB1i_7Visitor11visit_bytesNtNtCs51Ps0ib0oUr_10serde_json5error5ErrorEBc_
FN:24,_RINvXs_NvXNvNtNtCsaBorPZtlsJg_8latitude6models5events0_1__NtBa_17LatitudeEventTypeNtNtCsjYLpgt1qNsr_5serde2de11Deserialize11deserializeNtB5_7___FieldB1i_11deserializeINtNtNtNtB1m_9___private2de7content22ContentRefDeserializerNtNtCs51Ps0ib0oUr_10serde_json5error5ErrorEEBe_
FN:34,_RINvXNvXNvNtNtCsaBorPZtlsJg_8latitude6models5events1_1__NtB8_9ChainStepNtNtCsjYLpgt1qNsr_5serde2de11Deserialize11deserializeNtB3_14___FieldVisitorNtB19_7Visitor9visit_u64NtNtCs51Ps0ib0oUr_10serde_json5error5ErrorEBc_
FN:34,_RINvXNvXNvNtNtCsaBorPZtlsJg_8latitude6models5events1_1__NtB8_9ChainStepNtNtCsjYLpgt1qNsr_5serde2de11Deserialize11deserializeNtB3_14___FieldVisitorNtB19_7Visitor9visit_strNtNtCs51Ps0ib0oUr_10serde_json5error5ErrorEBc_
FN:34,_RINvXNvXNvNtNtCsaBorPZtlsJg_8latitude6models5events1_1__NtB8_9ChainStepNtNtCsjYLpgt1qNsr_5serde2de11Deserialize11deserializeNtB3_14___FieldVisitorNtB19_7Visitor11visit_bytesNtNtCs51Ps0ib0oUr_10serde_json5error5ErrorEBc_
FN:34,_RINvXs_NvXNvNtNtCsaBorPZtlsJg_8latitude6models5events1_1__NtBa_9ChainStepNtNtCsjYLpgt1qNsr_5serde2de11Deserialize11deserializeNtB5_7___FieldB19_11deserializeINtNtNtNtB1d_9___private2de7content19ContentDeserializerNtNtCs51Ps0ib0oUr_10serde_json5error5ErrorEEBe_
FN:34,_RINvXs0_NvXNvNtNtCsaBorPZtlsJg_8latitude6models5events1_1__NtBb_9ChainStepNtNtCsjYLpgt1qNsr_5serde2de11Deserialize11deserializeNtB6_9___VisitorNtB1c_7Visitor9visit_seqQINtNtB1c_5value15SeqDeserializerINtNtNtNtCs3LnWLHyH425_4core4iter8adapters3map3MapINtNtNtCsk6rk5B4ufwS_5alloc3vec9into_iter8IntoIterNtNtNtNtB1e_9___private2de7content7ContentENvMse_B4Q_INtB4Q_19ContentDeserializerNtNtCs51Ps0ib0oUr_10serde_json5error5ErrorE3newEB67_EEBf_
FN:34,_RINvXs0_NvXNvNtNtCsaBorPZtlsJg_8latitude6models5events1_1__NtBb_9ChainStepNtNtCsjYLpgt1qNsr_5serde2de11Deserialize11deserializeNtB6_9___VisitorNtB1c_7Visitor9visit_mapQINtNtB1c_5value15MapDeserializerINtNtNtNtCs3LnWLHyH425_4core4iter8adapters3map3MapINtNtNtCsk6rk5B4ufwS_5alloc3vec9into_iter8IntoIterTNtNtNtNtB1e_9___private2de7content7ContentB4P_EENCINvB4R_17visit_content_mapB21_NtNtCs51Ps0ib0oUr_10serde_json5error5ErrorE0EB67_EEBf_
FN:44,_RINvXNvXNvNtNtCsaBorPZtlsJg_8latitude6models5events2_1__NtB8_13ChainCompleteNtNtCsjYLpgt1qNsr_5serde2de11Deserialize11deserializeNtB3_14___FieldVisitorNtB1e_7Visitor9visit_u64NtNtCs51Ps0ib0oUr_10serde_json5error5ErrorEBc_
FN:44,_RINvXNvXNvNtNtCsaBorPZtlsJg_8latitude6models5events2_1__NtB8_13ChainCompleteNtNtCsjYLpgt1qNsr_5serde2de11Deserialize11deserializeNtB3_14___FieldVisitorNtB1e_7Visitor9visit_strNtNtCs51Ps0ib0oUr_10serde_json5error5ErrorEBc_
FN:44,_RINvXNvXNvNtNtCsaBorPZtlsJg_8latitude6models5events2_1__NtB8_13ChainCompleteNtNtCsjYLpgt1qNsr_5serde2de11Deserialize11deserializeNtB3_14___FieldVisitorNtB1e_7Visitor11visit_bytesNtNtCs51Ps0ib0oUr_10serde_json5error5ErrorEBc_
FN:44,_RINvXs_NvXNvNtNtCsaBorPZtlsJg_8latitude6models5events2_1__NtBa_13ChainCompleteNtNtCsjYLpgt1qNsr_5serde2de11Deserialize11deserializeNtB5_7___FieldB1e_11deserializeINtNtNtNtB1i_9___private2de7content19ContentDeserializerNtNtCs51Ps0ib0oUr_10serde_json5error5ErrorEEBe_
FN:44,_RINvXs0_NvXNvNtNtCsaBorPZtlsJg_8latitude6models5events2_1__NtBb_13ChainCompleteNtNtCsjYLpgt1qNsr_5serde2de11Deserialize11deserializeNtB6_9___VisitorNtB1h_7Visitor9visit_seqQINtNtB1h_5value15SeqDeserializerINtNtNtNtCs3LnWLHyH425_4core4iter8adapters3map3MapINtNtNtCsk6rk5B4ufwS_5alloc3vec9into_iter8IntoIterNtNtNtNtB1j_9___private2de7content7ContentENvMse_B4V_INtB4V_19ContentDeserializerNtNtCs51Ps0ib0oUr_10serde_json5error5ErrorE3newEB6c_EEBf_
FN:44,_RINvXs0_NvXNvNtNtCsaBorPZtlsJg_8latitude6models5events2_1__NtBb_13ChainCompleteNtNtCsjYLpgt1qNsr_5serde2de11Deserialize11deserializeNtB6_9___VisitorNtB1h_7Visitor9visit_mapQINtNtB1h_5value15MapDeserializerINtNtNtNtCs3LnWLHyH425_4core4iter8adapters3map3MapINtNtNtCsk6rk5B4ufwS_5alloc3vec9into_iter8IntoIterTNtNtNtNtB1j_9___private2de7content7ContentB4U_EENCINvB4W_17visit_content_mapB26_NtNtCs51Ps0ib0oUr_10serde_json5error5ErrorE0EB6c_EEBf_
FN:52,_RINvXNvXNvNtNtCsaBorPZtlsJg_8latitude6models5events3_1__NtB8_6ConfigNtNtCsjYLpgt1qNsr_5serde2de11Deserialize11deserializeNtB3_14___FieldVisitorNtB16_7Visitor9visit_u64NtNtCs51Ps0ib0oUr_10serde_json5error5ErrorEBc_
FN:52,_RINvXNvXNvNtNtCsaBorPZtlsJg_8latitude6models5events3_1__NtB8_6ConfigNtNtCsjYLpgt1qNsr_5serde2de11Deserialize11deserializeNtB3_14___FieldVisitorNtB16_7Visitor9visit_strNtNtCs51Ps0ib0oUr_10serde_json5error5ErrorEBc_
FN:52,_RINvXNvXNvNtNtCsaBorPZtlsJg_8latitude6models5events3_1__NtB8_6ConfigNtNtCsjYLpgt1qNsr_5serde2de11Deserialize11deserializeNtB3_14___FieldVisitorNtB16_7Visitor11visit_bytesNtNtCs51Ps0ib0oUr_10serde_json5error5ErrorEBc_
FN:52,_RINvXs_NvXNvNtNtCsaBorPZtlsJg_8latitude6models5events3_1__NtBa_6ConfigNtNtCsjYLpgt1qNsr_5serde2de11Deserialize11deserializeNtB5_7___FieldB16_11deserializeINtNtNtNtB1a_9___private2de7content19ContentDeserializerNtNtCs51Ps0ib0oUr_10serde_json5error5ErrorEEBe_
FN:52,_RINvXs0_NvXNvNtNtCsaBorPZtlsJg_8latitude6models5events3_1__NtBb_6ConfigNtNtCsjYLpgt1qNsr_5serde2de11Deserialize11deserializeNtB6_9___VisitorNtB19_7Visitor9visit_seqQINtNtB19_5value15SeqDeserializerINtNtNtNtCs3LnWLHyH425_4core4iter8adapters3map3MapINtNtNtCsk6rk5B4ufwS_5alloc3vec9into_iter8IntoIterNtNtNtNtB1b_9___private2de7content7ContentENvMse_B4N_INtB4N_19ContentDeserializerNtNtCs51Ps0ib0oUr_10serde_json5error5ErrorE3newEB64_EEBf_
FN:52,_RINvXs0_NvXNvNtNtCsaBorPZtlsJg_8latitude6models5events3_1__NtBb_6ConfigNtNtCsjYLpgt1qNsr_5serde2de11Deserialize11deserializeNtB6_9___VisitorNtB19_7Visitor9visit_mapQINtNtB19_5value15MapDeserializerINtNtNtNtCs3LnWLHyH425_4core4iter8adapters3map3MapINtNtNtCsk6rk5B4ufwS_5alloc3vec9into_iter8IntoIterTNtNtNtNtB1b_9___private2de7content7ContentB4M_EENCINvB4O_17visit_content_mapB1Y_NtNtCs51Ps0ib0oUr_10serde_json5error5ErrorE0EB64_EEBf_
FN:60,_RINvXNvXNvNtNtCsaBorPZtlsJg_8latitude6models5events4_1__NtB8_7MessageNtNtCsjYLpgt1qNsr_5serde2de11Deserialize11deserializeNtB3_14___FieldVisitorNtB17_7Visitor9visit_u64NtNtCs51Ps0ib0oUr_10serde_json5error5ErrorEBc_
FN:60,_RINvXNvXNvNtNtCsaBorPZtlsJg_8latitude6models5events4_1__NtB8_7MessageNtNtCsjYLpgt1qNsr_5serde2de11Deserialize11deserializeNtB3_14___FieldVisitorNtB17_7Visitor9visit_strNtNtCs51Ps0ib0oUr_10serde_json5error5ErrorEBc_
FN:60,_RINvXNvXNvNtNtCsaBorPZtlsJg_8latitude6models5events4_1__NtB8_7MessageNtNtCsjYLpgt1qNsr_5serde2de11Deserialize11deserializeNtB3_14___FieldVisitorNtB17_7Visitor11visit_bytesNtNtCs51Ps0ib0oUr_10serde_json5error5ErrorEBc_
FN:60,_RINvXs_NvXNvNtNtCsaBorPZtlsJg_8latitude6models5events4_1__NtBa_7MessageNtNtCsjYLpgt1qNsr_5serde2de11Deserialize11deserializeNtB5_7___FieldB17_11deserializeINtNtNtNtB1b_9___private2de7content19ContentDeserializerNtNtCs51Ps0ib0oUr_10serde_json5error5ErrorEEBe_
FN:60,_RINvXs0_NvXNvNtNtCsaBorPZtlsJg_8latitude6models5events4_1__NtBb_7MessageNtNtCsjYLpgt1qNsr_5serde2de11Deserialize11deserializeNtB6_9___VisitorNtB1a_7Visitor9visit_seqQINtNtB1a_5value15SeqDeserializerINtNtNtNtCs3LnWLHyH425_4core4iter8adapters3map3MapINtNtNtCsk6rk5B4ufwS_5alloc3vec9into_iter8IntoIterNtNtNtNtB1c_9___private2de7content7ContentENvMse_B4O_INtB4O_19ContentDeserializerNtNtCs51Ps0ib0oUr_10serde_json5error5ErrorE3newEB65_EEBf_
FN:60,_RINvXs0_NvXNvNtNtCsaBorPZtlsJg_8latitude6models5events4_1__NtBb_7MessageNtNtCsjYLpgt1qNsr_5serde2de11Deserialize11deserializeNtB6_9___VisitorNtB1a_7Visitor9visit_mapQINtNtB1a_5value15MapDeserializerINtNtNtNtCs3LnWLHyH425_4core4iter8adapters3map3MapINtNtNtCsk6rk5B4ufwS_5alloc3vec9into_iter8IntoIterTNtNtNtNtB1c_9___private2de7content7ContentB4N_EENCINvB4P_17visit_content_mapB1Z_NtNtCs51Ps0ib0oUr_10serde_json5error5ErrorE0EB65_EEBf_
FN:69,_RINvXNvXNvNtNtCsaBorPZtlsJg_8latitude6models5events5_1__NtB8_4RoleNtNtCsjYLpgt1qNsr_5serde2de11Deserialize11deserializeNtB3_14___FieldVisitorNtB14_7Visitor9visit_u64NtNtCs51Ps0ib0oUr_10serde_json5error5ErrorEBc_
FN:69,_RINvXNvXNvNtNtCsaBorPZtlsJg_8latitude6models5events5_1__NtB8_4RoleNtNtCsjYLpgt1qNsr_5serde2de11Deserialize11deserializeNtB3_14___FieldVisitorNtB14_7Visitor9visit_strNtNtCs51Ps0ib0oUr_10serde_json5error5ErrorEBc_
FN:69,_RINvXNvXNvNtNtCsaBorPZtlsJg_8latitude6models5events5_1__NtB8_4RoleNtNtCsjYLpgt1qNsr_5serde2de11Deserialize11deserializeNtB3_14___FieldVisitorNtB14_7Visitor11visit_bytesNtNtCs51Ps0ib0oUr_10serde_json5error5ErrorEBc_
FN:69,_RINvXs_NvXNvNtNtCsaBorPZtlsJg_8latitude6models5events5_1__NtBa_4RoleNtNtCsjYLpgt1qNsr_5serde2de11Deserialize11deserializeNtB5_7___FieldB14_11deserializeINtNtNtNtB18_9___private2de7content19ContentDeserializerNtNtCs51Ps0ib0oUr_10serde_json5error5ErrorEEBe_
FN:69,_RINvXs0_NvXNvNtNtCsaBorPZtlsJg_8latitude6models5events5_1__NtBb_4RoleNtNtCsjYLpgt1qNsr_5serde2de11Deserialize11deserializeNtB6_9___VisitorNtB17_7Visitor10visit_enumINtNtNtNtB19_9___private2de7content16EnumDeserializerNtNtCs51Ps0ib0oUr_10serde_json5error5ErrorEEBf_
FN:85,_RINvXNvXNvNtNtCsaBorPZtlsJg_8latitude6models5events7_1__NtB8_8ResponseNtNtCsjYLpgt1qNsr_5serde2de11Deserialize11deserializeNtB3_14___FieldVisitorNtB18_7Visitor9visit_u64NtNtCs51Ps0ib0oUr_10serde_json5error5ErrorEBc_
FN:85,_RINvXNvXNvNtNtCsaBorPZtlsJg_8latitude6models5events7_1__NtB8_8ResponseNtNtCsjYLpgt1qNsr_5serde2de11Deserialize11deserializeNtB3_14___FieldVisitorNtB18_7Visitor9visit_strNtNtCs51Ps0ib0oUr_10serde_json5error5ErrorEBc_
FN:85,_RINvXNvXNvNtNtCsaBorPZtlsJg_8latitude6models5events7_1__NtB8_8ResponseNtNtCsjYLpgt1qNsr_5serde2de11Deserialize11deserializeNtB3_14___FieldVisitorNtB18_7Visitor11visit_bytesNtNtCs51Ps0ib0oUr_10serde_json5error5ErrorEBc_
FN:85,_RINvXs_NvXNvNtNtCsaBorPZtlsJg_8latitude6models5events7_1__NtBa_8ResponseNtNtCsjYLpgt1qNsr_5serde2de11Deserialize11deserializeNtB5_7___FieldB18_11deserializeINtNtNtNtB1c_9___private2de7content19ContentDeserializerNtNtCs51Ps0ib0oUr_10serde_json5error5ErrorEEBe_
FN:85,_RINvXs0_NvXNvNtNtCsaBorPZtlsJg_8latitude6models5events7_1__NtBb_8ResponseNtNtCsjYLpgt1qNsr_5serde2de11Deserialize11deserializeNtB6_9___VisitorNtB1b_7Visitor9visit_seqQINtNtB1b_5value15SeqDeserializerINtNtNtNtCs3LnWLHyH425_4core4iter8adapters3map3MapINtNtNtCsk6rk5B4ufwS_5alloc3vec9into_iter8IntoIterNtNtNtNtB1d_9___private2de7content7ContentENvMse_B4P_INtB4P_19ContentDeserializerNtNtCs51Ps0ib0oUr_10serde_json5error5ErrorE3newEB66_EEBf_
FN:85,_RINvXs0_NvXNvNtNtCsaBorPZtlsJg_8latitude6models5events7_1__NtBb_8ResponseNtNtCsjYLpgt1qNsr_5serde2de11Deserialize11deserializeNtB6_9___VisitorNtB1b_7Visitor9visit_mapQINtNtB1b_5value15MapDeserializerINtNtNtNtCs3LnWLHyH425_4core4iter8adapters3map3MapINtNtNtCsk6rk5B4ufwS_5alloc3vec9into_iter8IntoIterTNtNtNtNtB1d_9___private2de7content7ContentB4O_EENCINvB4Q_17visit_content_mapB20_NtNtCs51Ps0ib0oUr_10serde_json5error5ErrorE0EB66_EEBf_
FN:94,_RINvXNvXNvNtNtCsaBorPZtlsJg_8latitude6models5events8_1__NtB8_8ToolCallNtNtCsjYLpgt1qNsr_5serde2de11Deserialize11deserializeNtB3_14___FieldVisitorNtB18_7Visitor9visit_u64NtNtCs51Ps0ib0oUr_10serde_json5error5ErrorEBc_
FN:94,_RINvXNvXNvNtNtCsaBorPZtlsJg_8latitude6models5events8_1__NtB8_8ToolCallNtNtCsjYLpgt1qNsr_5serde2de11Deserialize11deserializeNtB3_14___FieldVisitorNtB18_7Visitor9visit_strNtNtCs51Ps0ib0oUr_10serde_json5error5ErrorEBc_
FN:94,_RINvXNvXNvNtNtCsaBorPZtlsJg_8latitude6models5events8_1__NtB8_8ToolCallNtNtCsjYLpgt1qNsr_5serde2de11Deserialize11deserializeNtB3_14___FieldVisitorNtB18_7Visitor11visit_bytesNtNtCs51Ps0ib0oUr_10serde_json5error5ErrorEBc_
FN:94,_RINvXs_NvXNvNtNtCsaBorPZtlsJg_8latitude6models5events8_1__NtBa_8ToolCallNtNtCsjYLpgt1qNsr_5serde2de11Deserialize11deserializeNtB5_7___FieldB18_11deserializeINtNtNtNtB1c_9___private2de7content19ContentDeserializerNtNtCs51Ps0ib0oUr_10serde_json5error5ErrorEEBe_
FN:94,_RINvXs0_NvXNvNtNtCsaBorPZtlsJg_8latitude6models5events8_1__NtBb_8ToolCallNtNtCsjYLpgt1qNsr_5serde2de11Deserialize11deserializeNtB6_9___VisitorNtB1b_7Visitor9visit_seqQINtNtB1b_5value15SeqDeserializerINtNtNtNtCs3LnWLHyH425_4core4iter8adapters3map3MapINtNtNtCsk6rk5B4ufwS_5alloc3vec9into_iter8IntoIterNtNtNtNtB1d_9___private2de7content7ContentENvMse_B4P_INtB4P_19ContentDeserializerNtNtCs51Ps0ib0oUr_10serde_json5error5ErrorE3newEB66_EEBf_
FN:94,_RINvXs0_NvXNvNtNtCsaBorPZtlsJg_8latitude6models5events8_1__NtBb_8ToolCallNtNtCsjYLpgt1qNsr_5serde2de11Deserialize11deserializeNtB6_9___VisitorNtB1b_7Visitor9visit_mapQINtNtB1b_5value15MapDeserializerINtNtNtNtCs3LnWLHyH425_4core4iter8adapters3map3MapINtNtNtCsk6rk5B4ufwS_5alloc3vec9into_iter8IntoIterTNtNtNtNtB1d_9___private2de7content7ContentB4O_EENCINvB4Q_17visit_content_mapB20_NtNtCs51Ps0ib0oUr_10serde_json5error5ErrorE0EB66_EEBf_
FN:102,_RINvXNvXNvNtNtCsaBorPZtlsJg_8latitude6models5events9_1__NtB8_5UsageNtNtCsjYLpgt1qNsr_5serde2de11Deserialize11deserializeNtB3_14___FieldVisitorNtB15_7Visitor9visit_u64NtNtCs51Ps0ib0oUr_10serde_json5error5ErrorEBc_
FN:102,_RINvXNvXNvNtNtCsaBorPZtlsJg_8latitude6models5events9_1__NtB8_5UsageNtNtCsjYLpgt1qNsr_5serde2de11Deserialize11deserializeNtB3_14___FieldVisitorNtB15_7Visitor9visit_strNtNtCs51Ps0ib0oUr_10serde_json5error5ErrorEBc_
FN:102,_RINvXNvXNvNtNtCsaBorPZtlsJg_8latitude6models5events9_1__NtB8_5UsageNtNtCsjYLpgt1qNsr_5serde2de11Deserialize11deserializeNtB3_14___FieldVisitorNtB15_7Visitor11visit_bytesNtNtCs51Ps0ib0oUr_10serde_json5error5ErrorEBc_
FN:102,_RINvXs_NvXNvNtNtCsaBorPZtlsJg_8latitude6models5events9_1__NtBa_5UsageNtNtCsjYLpgt1qNsr_5serde2de11Deserialize11deserializeNtB5_7___FieldB15_11deserializeINtNtNtNtB19_9___private2de7content19ContentDeserializerNtNtCs51Ps0ib0oUr_10serde_json5error5ErrorEEBe_
FN:102,_RINvXs0_NvXNvNtNtCsaBorPZtlsJg_8latitude6models5events9_1__NtBb_5UsageNtNtCsjYLpgt1qNsr_5serde2de11Deserialize11deserializeNtB6_9___VisitorNtB18_7Visitor9visit_seqQINtNtB18_5value15SeqDeserializerINtNtNtNtCs3LnWLHyH425_4core4iter8adapters3map3MapINtNtNtCsk6rk5B4ufwS_5alloc3vec9into_iter8IntoIterNtNtNtNtB1a_9___private2de7content7ContentENvMse_B4M_INtB4M_19ContentDeserializerNtNtCs51Ps0ib0oUr_10serde_json5error5ErrorE3newEB63_EEBf_
FN:102,_RINvXs0_NvXNvNtNtCsaBorPZtlsJg_8latitude6models5events9_1__NtBb_5UsageNtNtCsjYLpgt1qNsr_5serde2de11Deserialize11deserializeNtB6_9___VisitorNtB18_7Visitor9visit_mapQINtNtB18_5value15MapDeserializerINtNtNtNtCs3LnWLHyH425_4core4iter8adapters3map3MapINtNtNtCsk6rk5B4ufwS_5alloc3vec9into_iter8IntoIterTNtNtNtNtB1a_9___private2de7content7ContentB4L_EENCINvB4N_17visit_content_mapB1X_NtNtCs51Ps0ib0oUr_10serde_json5error5ErrorE0EB63_EEBf_
FN:111,_RINvXNvXNvNtNtCsaBorPZtlsJg_8latitude6models5eventsa_1__NtB8_13ProviderEventNtNtCsjYLpgt1qNsr_5serde2de11Deserialize11deserializeNtB3_14___FieldVisitorNtB1e_7Visitor9visit_strNtNtCs51Ps0ib0oUr_10serde_json5error5ErrorEBc_
FN:111,_RINvXNvXNvNtNtCsaBorPZtlsJg_8latitude6models5eventsa_1__NtB8_13ProviderEventNtNtCsjYLpgt1qNsr_5serde2de11Deserialize11deserializeNtB3_14___FieldVisitorNtB1e_7Visitor18visit_borrowed_strNtNtCs51Ps0ib0oUr_10serde_json5error5ErrorEBc_
FN:111,_RINvXs_NvXNvNtNtCsaBorPZtlsJg_8latitude6models5eventsa_1__NtBa_13ProviderEventNtNtCsjYLpgt1qNsr_5serde2de11Deserialize11deserializeNtB5_7___FieldB1e_11deserializeINtNtCs51Ps0ib0oUr_10serde_json2de6MapKeyNtNtB2F_4read9SliceReadEEBe_
FN:111,_RINvXs0_NvXNvNtNtCsaBorPZtlsJg_8latitude6models5eventsa_1__NtBb_13ProviderEventNtNtCsjYLpgt1qNsr_5serde2de11Deserialize11deserializeNtB6_9___VisitorNtB1h_7Visitor9visit_mapINtNtCs51Ps0ib0oUr_10serde_json2de9MapAccessNtNtB2P_4read9SliceReadEEBf_
FN:118,_RINvXNvXNvNtNtCsaBorPZtlsJg_8latitude6models5eventsb_1__NtB8_17ProviderEventTypeNtNtCsjYLpgt1qNsr_5serde2de11Deserialize11deserializeNtB3_14___FieldVisitorNtB1i_7Visitor9visit_u64NtNtCs51Ps0ib0oUr_10serde_json5error5ErrorEBc_
FN:118,_RINvXNvXNvNtNtCsaBorPZtlsJg_8latitude6models5eventsb_1__NtB8_17ProviderEventTypeNtNtCsjYLpgt1qNsr_5serde2de11Deserialize11deserializeNtB3_14___FieldVisitorNtB1i_7Visitor9visit_strNtNtCs51Ps0ib0oUr_10serde_json5error5ErrorEBc_
FN:118,_RINvXNvXNvNtNtCsaBorPZtlsJg_8latitude6models5eventsb_1__NtB8_17ProviderEventTypeNtNtCsjYLpgt1qNsr_5serde2de11Deserialize11deserializeNtB3_14___FieldVisitorNtB1i_7Visitor11visit_bytesNtNtCs51Ps0ib0oUr_10serde_json5error5ErrorEBc_
FN:118,_RINvXs_NvXNvNtNtCsaBorPZtlsJg_8latitude6models5eventsb_1__NtBa_17ProviderEventTypeNtNtCsjYLpgt1qNsr_5serde2de11Deserialize11deserializeNtB5_7___FieldB1i_11deserializeINtNtNtNtB1m_9___private2de7content22ContentRefDeserializerNtNtCs51Ps0ib0oUr_10serde_json5error5ErrorEEBe_
FN:130,_RINvXNvXNvNtNtCsaBorPZtlsJg_8latitude6models5eventsc_1__NtB8_9TextDeltaNtNtCsjYLpgt1qNsr_5serde2de11Deserialize11deserializeNtB3_14___FieldVisitorNtB19_7Visitor9visit_u64NtNtCs51Ps0ib0oUr_10serde_json5error5ErrorEBc_
FN:130,_RINvXNvXNvNtNtCsaBorPZtlsJg_8latitude6models5eventsc_1__NtB8_9TextDeltaNtNtCsjYLpgt1qNsr_5serde2de11Deserialize11deserializeNtB3_14___FieldVisitorNtB19_7Visitor9visit_strNtNtCs51Ps0ib0oUr_10serde_json5error5ErrorEBc_
FN:130,_RINvXNvXNvNtNtCsaBorPZtlsJg_8latitude6models5eventsc_1__NtB8_9TextDeltaNtNtCsjYLpgt1qNsr_5serde2de11Deserialize11deserializeNtB3_14___FieldVisitorNtB19_7Visitor11visit_bytesNtNtCs51Ps0ib0oUr_10serde_json5error5ErrorEBc_
FN:130,_RINvXs_NvXNvNtNtCsaBorPZtlsJg_8latitude6models5eventsc_1__NtBa_9TextDeltaNtNtCsjYLpgt1qNsr_5serde2de11Deserialize11deserializeNtB5_7___FieldB19_11deserializeINtNtNtNtB1d_9___private2de7content19ContentDeserializerNtNtCs51Ps0ib0oUr_10serde_json5error5ErrorEEBe_
FN:130,_RINvXs0_NvXNvNtNtCsaBorPZtlsJg_8latitude6models5eventsc_1__NtBb_9TextDeltaNtNtCsjYLpgt1qNsr_5serde2de11Deserialize11deserializeNtB6_9___VisitorNtB1c_7Visitor9visit_seqQINtNtB1c_5value15SeqDeserializerINtNtNtNtCs3LnWLHyH425_4core4iter8adapters3map3MapINtNtNtCsk6rk5B4ufwS_5alloc3vec9into_iter8IntoIterNtNtNtNtB1e_9___private2de7content7ContentENvMse_B4Q_INtB4Q_19ContentDeserializerNtNtCs51Ps0ib0oUr_10serde_json5error5ErrorE3newEB67_EEBf_
FN:130,_RINvXs0_NvXNvNtNtCsaBorPZtlsJg_8latitude6models5eventsc_1__NtBb_9TextDeltaNtNtCsjYLpgt1qNsr_5serde2de11Deserialize11deserializeNtB6_9___VisitorNtB1c_7Visitor9visit_mapQINtNtB1c_5value15MapDeserializerINtNtNtNtCs3LnWLHyH425_4core4iter8adapters3map3MapINtNtNtCsk6rk5B4ufwS_5alloc3vec9into_iter8IntoIterTNtNtNtNtB1e_9___private2de7content7ContentB4P_EENCINvB4R_17visit_content_mapB21_NtNtCs51Ps0ib0oUr_10serde_json5error5ErrorE0EB67_EEBf_
FN:137,_RINvXNvXNvNtNtCsaBorPZtlsJg_8latitude6models5eventsd_1__NtB8_13ToolCallEventNtNtCsjYLpgt1qNsr_5serde2de11Deserialize11deserializeNtB3_14___FieldVisitorNtB1e_7Visitor9visit_u64NtNtCs51Ps0ib0oUr_10serde_json5error5ErrorEBc_
FN:137,_RINvXNvXNvNtNtCsaBorPZtlsJg_8latitude6models5eventsd_1__NtB8_13ToolCallEventNtNtCsjYLpgt1qNsr_5serde2de11Deserialize11deserializeNtB3_14___FieldVisitorNtB1e_7Visitor9visit_strNtNtCs51Ps0ib0oUr_10serde_json5error5ErrorEBc_
FN:137,_RINvXNvXNvNtNtCsaBorPZtlsJg_8latitude6models5eventsd_1__NtB8_13ToolCallEventNtNtCsjYLpgt1qNsr_5serde2de11Deserialize11deserializeNtB3_14___FieldVisitorNtB1e_7Visitor11visit_bytesNtNtCs51Ps0ib0oUr_10serde_json5error5ErrorEBc_
FN:137,_RINvXs_NvXNvNtNtCsaBorPZtlsJg_8latitude6models5eventsd_1__NtBa_13ToolCallEventNtNtCsjYLpgt1qNsr_5serde2de11Deserialize11deserializeNtB5_7___FieldB1e_11deserializeINtNtNtNtB1i_9___private2de7content19ContentDeserializerNtNtCs51Ps0ib0oUr_10serde_json5error5ErrorEEBe_
FN:137,_RINvXs0_NvXNvNtNtCsaBorPZtlsJg_8latitude6models5eventsd_1__NtBb_13ToolCallEventNtNtCsjYLpgt1qNsr_5serde2de11Deserialize11deserializeNtB6_9___VisitorNtB1h_7Visitor9visit_seqQINtNtB1h_5value15SeqDeserializerINtNtNtNtCs3LnWLHyH425_4core4iter8adapters3map3MapINtNtNtCsk6rk5B4ufwS_5alloc3vec9into_iter8IntoIterNtNtNtNtB1j_9___private2de7content7ContentENvMse_B4V_INtB4V_19ContentDeserializerNtNtCs51Ps0ib0oUr_10serde_json5error5ErrorE3newEB6c_EEBf_
FN:137,_RINvXs0_NvXNvNtNtCsaBorPZtlsJg_8latitude6models5eventsd_1__NtBb_13ToolCallEventNtNtCsjYLpgt1qNsr_5serde2de11Deserialize11deserializeNtB6_9___VisitorNtB1h_7Visitor9visit_mapQINtNtB1h_5value15MapDeserializerINtNtNtNtCs3LnWLHyH425_4core4iter8adapters3map3MapINtNtNtCsk6rk5B4ufwS_5alloc3vec9into_iter8IntoIterTNtNtNtNtB1j_9___private2de7content7ContentB4U_EENCINvB4W_17visit_content_mapB26_NtNtCs51Ps0ib0oUr_10serde_json5error5ErrorE0EB6c_EEBf_
FN:146,_RINvXNvXNvNtNtCsaBorPZtlsJg_8latitude6models5eventse_1__NtB8_15ToolResultEventNtNtCsjYLpgt1qNsr_5serde2de11Deserialize11deserializeNtB3_14___FieldVisitorNtB1g_7Visitor9visit_u64NtNtCs51Ps0ib0oUr_10serde_json5error5ErrorEBc_
FN:146,_RINvXNvXNvNtNtCsaBorPZtlsJg_8latitude6models5eventse_1__NtB8_15ToolResultEventNtNtCsjYLpgt1qNsr_5serde2de11Deserialize11deserializeNtB3_14___FieldVisitorNtB1g_7Visitor9visit_strNtNtCs51Ps0ib0oUr_10serde_json5error5ErrorEBc_
FN:146,_RINvXNvXNvNtNtCsaBorPZtlsJg_8latitude6models5eventse_1__NtB8_15ToolResultEventNtNtCsjYLpgt1qNsr_5serde2de11Deserialize11deserializeNtB3_14___FieldVisitorNtB1g_7Visitor11visit_bytesNtNtCs51Ps0ib0oUr_10serde_json5error5ErrorEBc_
FN:146,_RINvXs_NvXNvNtNtCsaBorPZtlsJg_8latitude6models5eventse_1__NtBa_15ToolResultEventNtNtCsjYLpgt1qNsr_5serde2de11Deserialize11deserializeNtB5_7___FieldB1g_11deserializeINtNtNtNtB1k_9___private2de7content19ContentDeserializerNtNtCs51Ps0ib0oUr_10serde_json5error5ErrorEEBe_
FN:146,_RINvXs0_NvXNvNtNtCsaBorPZtlsJg_8latitude6models5eventse_1__NtBb_15ToolResultEventNtNtCsjYLpgt1qNsr_5serde2de11Deserialize11deserializeNtB6_9___VisitorNtB1j_7Visitor9visit_seqQINtNtB1j_5value15SeqDeserializerINtNtNtNtCs3LnWLHyH425_4core4iter8adapters3map3MapINtNtNtCsk6rk5B4ufwS_5alloc3vec9into_iter8IntoIterNtNtNtNtB1l_9___private2de7content7ContentENvMse_B4X_INtB4X_19ContentDeserializerNtNtCs51Ps0ib0oUr_10serde_json5error5ErrorE3newEB6e_EEBf_
FN:146,_RINvXs0_NvXNvNtNtCsaBorPZtlsJg_8latitude6models5eventse_1__NtBb_15ToolResultEventNtNtCsjYLpgt1qNsr_5serde2de11Deserialize11deserializeNtB6_9___VisitorNtB1j_7Visitor9visit_mapQINtNtB1j_5value15MapDeserializerINtNtNtNtCs3LnWLHyH425_4core4iter8adapters3map3MapINtNtNtCsk6rk5B4ufwS_5alloc3vec9into_iter8IntoIterTNtNtNtNtB1l_9___private2de7content7ContentB4W_EENCINvB4Y_17visit_content_mapB28_NtNtCs51Ps0ib0oUr_10serde_json5error5ErrorE0EB6e_EEBf_
FN:155,_RINvXNvXNvNtNtCsaBorPZtlsJg_8latitude6models5eventsf_1__NtB8_10StepFinishNtNtCsjYLpgt1qNsr_5serde2de11Deserialize11deserializeNtB3_14___FieldVisitorNtB1b_7Visitor9visit_u64NtNtCs51Ps0ib0oUr_10serde_json5error5ErrorEBc_
FN:155,_RINvXNvXNvNtNtCsaBorPZtlsJg_8latitude6models5eventsf_1__NtB8_10StepFinishNtNtCsjYLpgt1qNsr_5serde2de11Deserialize11deserializeNtB3_14___FieldVisitorNtB1b_7Visitor9visit_strNtNtCs51Ps0ib0oUr_10serde_json5error5ErrorEBc_
FN:155,_RINvXNvXNvNtNtCsaBorPZtlsJg_8latitude6models5eventsf_1__NtB8_10StepFinishNtNtCsjYLpgt1qNsr_5serde2de11Deserialize11deserializeNtB3_14___FieldVisitorNtB1b_7Visitor11visit_bytesNtNtCs51Ps0ib0oUr_10serde_json5error5ErrorEBc_
FN:155,_RINvXs_NvXNvNtNtCsaBorPZtlsJg_8latitude6models5eventsf_1__NtBa_10StepFinishNtNtCsjYLpgt1qNsr_5serde2de11Deserialize11deserializeNtB5_7___FieldB1b_11deserializeINtNtNtNtB1f_9___private2de7content19ContentDeserializerNtNtCs51Ps0ib0oUr_10serde_json5error5ErrorEEBe_
FN:155,_RINvXs0_NvXNvNtNtCsaBorPZtlsJg_8latitude6models5eventsf_1__NtBb_10StepFinishNtNtCsjYLpgt1qNsr_5serde2de11Deserialize11deserializeNtB6_9___VisitorNtB1e_7Visitor9visit_seqQINtNtB1e_5value15SeqDeserializerINtNtNtNtCs3LnWLHyH425_4core4iter8adapters3map3MapINtNtNtCsk6rk5B4ufwS_5alloc3vec9into_iter8IntoIterNtNtNtNtB1g_9___private2de7content7ContentENvMse_B4S_INtB4S_19ContentDeserializerNtNtCs51Ps0ib0oUr_10serde_json5error5ErrorE3newEB69_EEBf_
FN:155,_RINvXs0_NvXNvNtNtCsaBorPZtlsJg_8latitude6models5eventsf_1__NtBb_10StepFinishNtNtCsjYLpgt1qNsr_5serde2de11Deserialize11deserializeNtB6_9___VisitorNtB1e_7Visitor9visit_mapQINtNtB1e_5value15MapDeserializerINtNtNtNtCs3LnWLHyH425_4core4iter8adapters3map3MapINtNtNtCsk6rk5B4ufwS_5alloc3vec9into_iter8IntoIterTNtNtNtNtB1g_9___private2de7content7ContentB4R_EENCINvB4T_17visit_content_mapB23_NtNtCs51Ps0ib0oUr_10serde_json5error5ErrorE0EB69_EEBf_
FN:165,_RINvXNvXNvNtNtCsaBorPZtlsJg_8latitude6models5eventsg_1__NtB8_12FinishReasonNtNtCsjYLpgt1qNsr_5serde2de11Deserialize11deserializeNtB3_14___FieldVisitorNtB1d_7Visitor9visit_u64NtNtCs51Ps0ib0oUr_10serde_json5error5ErrorEBc_
FN:165,_RINvXNvXNvNtNtCsaBorPZtlsJg_8latitude6models5eventsg_1__NtB8_12FinishReasonNtNtCsjYLpgt1qNsr_5serde2de11Deserialize11deserializeNtB3_14___FieldVisitorNtB1d_7Visitor9visit_strNtNtCs51Ps0ib0oUr_10serde_json5error5ErrorEBc_
FN:165,_RINvXNvXNvNtNtCsaBorPZtlsJg_8latitude6models5eventsg_1__NtB8_12FinishReasonNtNtCsjYLpgt1qNsr_5serde2de11Deserialize11deserializeNtB3_14___FieldVisitorNtB1d_7Visitor11visit_bytesNtNtCs51Ps0ib0oUr_10serde_json5error5ErrorEBc_
FN:165,_RINvXs_NvXNvNtNtCsaBorPZtlsJg_8latitude6models5eventsg_1__NtBa_12FinishReasonNtNtCsjYLpgt1qNsr_5serde2de11Deserialize11deserializeNtB5_7___FieldB1d_11deserializeINtNtNtNtB1h_9___private2de7content19ContentDeserializerNtNtCs51Ps0ib0oUr_10serde_json5error5ErrorEEBe_
FN:165,_RINvXs0_NvXNvNtNtCsaBorPZtlsJg_8latitude6models5eventsg_1__NtBb_12FinishReasonNtNtCsjYLpgt1qNsr_5serde2de11Deserialize11deserializeNtB6_9___VisitorNtB1g_7Visitor10visit_enumINtNtNtNtB1i_9___private2de7content16EnumDeserializerNtNtCs51Ps0ib0oUr_10serde_json5error5ErrorEEBf_
FN:178,_RINvXNvXNvNtNtCsaBorPZtlsJg_8latitude6models5eventsh_1__NtB8_14ProviderFinishNtNtCsjYLpgt1qNsr_5serde2de11Deserialize11deserializeNtB3_14___FieldVisitorNtB1f_7Visitor9visit_u64NtNtCs51Ps0ib0oUr_10serde_json5error5ErrorEBc_
FN:178,_RINvXNvXNvNtNtCsaBorPZtlsJg_8latitude6models5eventsh_1__NtB8_14ProviderFinishNtNtCsjYLpgt1qNsr_5serde2de11Deserialize11deserializeNtB3_14___FieldVisitorNtB1f_7Visitor9visit_strNtNtCs51Ps0ib0oUr_10serde_json5error5ErrorEBc_
FN:178,_RINvXNvXNvNtNtCsaBorPZtlsJg_8latitude6models5eventsh_1__NtB8_14ProviderFinishNtNtCsjYLpgt1qNsr_5serde2de11Deserialize11deserializeNtB3_14___FieldVisitorNtB1f_7Visitor11visit_bytesNtNtCs51Ps0ib0oUr_10serde_json5error5ErrorEBc_
FN:178,_RINvXs_NvXNvNtNtCsaBorPZtlsJg_8latitude6models5eventsh_1__NtBa_14ProviderFinishNtNtCsjYLpgt1qNsr_5serde2de11Deserialize11deserializeNtB5_7___FieldB1f_11deserializeINtNtNtNtB1j_9___private2de7content19ContentDeserializerNtNtCs51Ps0ib0oUr_10serde_json5error5ErrorEEBe_
FN:178,_RINvXs0_NvXNvNtNtCsaBorPZtlsJg_8latitude6models5eventsh_1__NtBb_14ProviderFinishNtNtCsjYLpgt1qNsr_5serde2de11Deserialize11deserializeNtB6_9___VisitorNtB1i_7Visitor9visit_seqQINtNtB1i_5value15SeqDeserializerINtNtNtNtCs3LnWLHyH425_4core4iter8adapters3map3MapINtNtNtCsk6rk5B4ufwS_5alloc3vec9into_iter8IntoIterNtNtNtNtB1k_9___private2de7content7ContentENvMse_B4W_INtB4W_19ContentDeserializerNtNtCs51Ps0ib0oUr_10serde_json5error5ErrorE3newEB6d_EEBf_
FN:178,_RINvXs0_NvXNvNtNtCsaBorPZtlsJg_8latitude6models5eventsh_1__NtBb_14ProviderFinishNtNtCsjYLpgt1qNsr_5serde2de11Deserialize11deserializeNtB6_9___VisitorNtB1i_7Visitor9visit_mapQINtNtB1i_5value15MapDeserializerINtNtNtNtCs3LnWLHyH425_4core4iter8adapters3map3MapINtNtNtCsk6rk5B4ufwS_5alloc3vec9into_iter8IntoIterTNtNtNtNtB1k_9___private2de7content7ContentB4V_EENCINvB4X_17visit_content_mapB27_NtNtCs51Ps0ib0oUr_10serde_json5error5ErrorE0EB6d_EEBf_
FN:188,_RINvXNvXNvNtNtCsaBorPZtlsJg_8latitude6models5eventsi_1__NtB8_16ProviderResponseNtNtCsjYLpgt1qNsr_5serde2de11Deserialize11deserializeNtB3_14___FieldVisitorNtB1h_7Visitor9visit_u64NtNtCs51Ps0ib0oUr_10serde_json5error5ErrorEBc_
FN:188,_RINvXNvXNvNtNtCsaBorPZtlsJg_8latitude6models5eventsi_1__NtB8_16ProviderResponseNtNtCsjYLpgt1qNsr_5serde2de11Deserialize11deserializeNtB3_14___FieldVisitorNtB1h_7Visitor9visit_strNtNtCs51Ps0ib0oUr_10serde_json5error5ErrorEBc_
FN:188,_RINvXNvXNvNtNtCsaBorPZtlsJg_8latitude6models5eventsi_1__NtB8_16ProviderResponseNtNtCsjYLpgt1qNsr_5serde2de11Deserialize11deserializeNtB3_14___FieldVisitorNtB1h_7Visitor11visit_bytesNtNtCs51Ps0ib0oUr_10serde_json5error5ErrorEBc_
FN:188,_RINvXs_NvXNvNtNtCsaBorPZtlsJg_8latitude6models5eventsi_1__NtBa_16ProviderResponseNtNtCsjYLpgt1qNsr_5serde2de11Deserialize11deserializeNtB5_7___FieldB1h_11deserializeINtNtNtNtB1l_9___private2de7content19ContentDeserializerNtNtCs51Ps0ib0oUr_10serde_json5error5ErrorEEBe_
FN:188,_RINvXs0_NvXNvNtNtCsaBorPZtlsJg_8latitude6models5eventsi_1__NtBb_16ProviderResponseNtNtCsjYLpgt1qNsr_5serde2de11Deserialize11deserializeNtB6_9___VisitorNtB1k_7Visitor9visit_seqQINtNtB1k_5value15SeqDeserializerINtNtNtNtCs3LnWLHyH425_4core4iter8adapters3map3MapINtNtNtCsk6rk5B4ufwS_5alloc3vec9into_iter8IntoIterNtNtNtNtB1m_9___private2de7content7ContentENvMse_B4Y_INtB4Y_19ContentDeserializerNtNtCs51Ps0ib0oUr_10serde_json5error5ErrorE3newEB6f_EEBf_
FN:188,_RINvXs0_NvXNvNtNtCsaBorPZtlsJg_8latitude6models5eventsi_1__NtBb_16ProviderResponseNtNtCsjYLpgt1qNsr_5serde2de11Deserialize11deserializeNtB6_9___VisitorNtB1k_7Visitor9visit_mapQINtNtB1k_5value15MapDeserializerINtNtNtNtCs3LnWLHyH425_4core4iter8adapters3map3MapINtNtNtCsk6rk5B4ufwS_5alloc3vec9into_iter8IntoIterTNtNtNtNtB1m_9___private2de7content7ContentB4X_EENCINvB4Z_17visit_content_mapB29_NtNtCs51Ps0ib0oUr_10serde_json5error5ErrorE0EB6f_EEBf_
FN:197,_RINvXNvXNvNtNtCsaBorPZtlsJg_8latitude6models5eventsj_1__NtB8_10ErrorEventNtNtCsjYLpgt1qNsr_5serde2de11Deserialize11deserializeNtB3_14___FieldVisitorNtB1b_7Visitor9visit_u64NtNtCs51Ps0ib0oUr_10serde_json5error5ErrorEBc_
FN:197,_RINvXNvXNvNtNtCsaBorPZtlsJg_8latitude6models5eventsj_1__NtB8_10ErrorEventNtNtCsjYLpgt1qNsr_5serde2de11Deserialize11deserializeNtB3_14___FieldVisitorNtB1b_7Visitor9visit_strNtNtCs51Ps0ib0oUr_10serde_json5error5ErrorEBc_
FN:197,_RINvXNvXNvNtNtCsaBorPZtlsJg_8latitude6models5eventsj_1__NtB8_10ErrorEventNtNtCsjYLpgt1qNsr_5serde2de11Deserialize11deserializeNtB3_14___FieldVisitorNtB1b_7Visitor11visit_bytesNtNtCs51Ps0ib0oUr_10serde_json5error5ErrorEBc_
FN:197,_RINvXs_NvXNvNtNtCsaBorPZtlsJg_8latitude6models5eventsj_1__NtBa_10ErrorEventNtNtCsjYLpgt1qNsr_5serde2de11Deserialize11deserializeNtB5_7___FieldB1b_11deserializeINtNtNtNtB1f_9___private2de7content19ContentDeserializerNtNtCs51Ps0ib0oUr_10serde_json5error5ErrorEEBe_
FN:197,_RINvXs0_NvXNvNtNtCsaBorPZtlsJg_8latitude6models5eventsj_1__NtBb_10ErrorEventNtNtCsjYLpgt1qNsr_5serde2de11Deserialize11deserializeNtB6_9___VisitorNtB1e_7Visitor9visit_seqQINtNtB1e_5value15SeqDeserializerINtNtNtNtCs3LnWLHyH425_4core4iter8adapters3map3MapINtNtNtCsk6rk5B4ufwS_5alloc3vec9into_iter8IntoIterNtNtNtNtB1g_9___private2de7content7ContentENvMse_B4S_INtB4S_19ContentDeserializerNtNtCs51Ps0ib0oUr_10serde_json5error5ErrorE3newEB69_EEBf_
FN:197,_RINvXs0_NvXNvNtNtCsaBorPZtlsJg_8latitude6models5eventsj_1__NtBb_10ErrorEventNtNtCsjYLpgt1qNsr_5serde2de11Deserialize11deserializeNtB6_9___VisitorNtB1e_7Visitor9visit_mapQINtNtB1e_5value15MapDeserializerINtNtNtNtCs3LnWLHyH425_4core4iter8adapters3map3MapINtNtNtCsk6rk5B4ufwS_5alloc3vec9into_iter8IntoIterTNtNtNtNtB1g_9___private2de7content7ContentB4R_EENCINvB4T_17visit_content_mapB23_NtNtCs51Ps0ib0oUr_10serde_json5error5ErrorE0EB69_EEBf_
FN:16,_RNvXs0_NvXNvNtNtCsaBorPZtlsJg_8latitude6models5events_1__NtBa_13LatitudeEventNtNtCsjYLpgt1qNsr_5serde2de11Deserialize11deserializeNtB5_9___VisitorNtB1f_7Visitor9expecting
FN:24,_RNvXNvXNvNtNtCsaBorPZtlsJg_8latitude6models5events0_1__NtB7_17LatitudeEventTypeNtNtCsjYLpgt1qNsr_5serde2de11Deserialize11deserializeNtB2_14___FieldVisitorNtB1h_7Visitor9expecting
FN:34,_RNvXNvXNvNtNtCsaBorPZtlsJg_8latitude6models5events1_1__NtB7_9ChainStepNtNtCsjYLpgt1qNsr_5serde2de11Deserialize11deserializeNtB2_14___FieldVisitorNtB18_7Visitor9expecting
FN:34,_RNvXs0_NvXNvNtNtCsaBorPZtlsJg_8latitude6models5events1_1__NtBa_9ChainStepNtNtCsjYLpgt1qNsr_5serde2de11Deserialize11deserializeNtB5_9___VisitorNtB1b_7Visitor9expecting
FN:44,_RNvXNvXNvNtNtCsaBorPZtlsJg_8latitude6models5events2_1__NtB7_13ChainCompleteNtNtCsjYLpgt1qNsr_5serde2de11Deserialize11deserializeNtB2_14___FieldVisitorNtB1d_7Visitor9expecting
FN:44,_RNvXs0_NvXNvNtNtCsaBorPZtlsJg_8latitude6models5events2_1__NtBa_13ChainCompleteNtNtCsjYLpgt1qNsr_5serde2de11Deserialize11deserializeNtB5_9___VisitorNtB1g_7Visitor9expecting
FN:52,_RNvXNvXNvNtNtCsaBorPZtlsJg_8latitude6models5events3_1__NtB7_6ConfigNtNtCsjYLpgt1qNsr_5serde2de11Deserialize11deserializeNtB2_14___FieldVisitorNtB15_7Visitor9expecting
FN:52,_RNvXs0_NvXNvNtNtCsaBorPZtlsJg_8latitude6models5events3_1__NtBa_6ConfigNtNtCsjYLpgt1qNsr_5serde2de11Deserialize11deserializeNtB5_9___VisitorNtB18_7Visitor9expecting
FN:60,_RNvXNvXNvNtNtCsaBorPZtlsJg_8latitude6models5events4_1__NtB7_7MessageNtNtCsjYLpgt1qNsr_5serde2de11Deserialize11deserializeNtB2_14___FieldVisitorNtB16_7Visitor9expecting
FN:60,_RNvXs0_NvXNvNtNtCsaBorPZtlsJg_8latitude6models5events4_1__NtBa_7MessageNtNtCsjYLpgt1qNsr_5serde2de11Deserialize11deserializeNtB5_9___VisitorNtB19_7Visitor9expecting
FN:69,_RNvXNvXNvNtNtCsaBorPZtlsJg_8latitude6models5events5_1__NtB7_4RoleNtNtCsjYLpgt1qNsr_5serde2de11Deserialize11deserializeNtB2_14___FieldVisitorNtB13_7Visitor9expecting
FN:85,_RNvXNvXNvNtNtCsaBorPZtlsJg_8latitude6models5events7_1__NtB7_8ResponseNtNtCsjYLpgt1qNsr_5serde2de11Deserialize11deserializeNtB2_14___FieldVisitorNtB17_7Visitor9expecting
FN:85,_RNvXs0_NvXNvNtNtCsaBorPZtlsJg_8latitude6models5events7_1__NtBa_8ResponseNtNtCsjYLpgt1qNsr_5serde2de11Deserialize11deserializeNtB5_9___VisitorNtB1a_7Visitor9expecting
FN:94,_RNvXNvXNvNtNtCsaBorPZtlsJg_8latitude6models5events8_1__NtB7_8ToolCallNtNtCsjYLpgt1qNsr_5serde2de11Deserialize11deserializeNtB2_14___FieldVisitorNtB17_7Visitor9expecting
FN:94,_RNvXs0_NvXNvNtNtCsaBorPZtlsJg_8latitude6models5events8_1__NtBa_8ToolCallNtNtCsjYLpgt1qNsr_5serde2de11Deserialize11deserializeNtB5_9___VisitorNtB1a_7Visitor9expecting
FN:102,_RNvXNvXNvNtNtCsaBorPZtlsJg_8latitude6models5events9_1__NtB7_5UsageNtNtCsjYLpgt1qNsr_5serde2de11Deserialize11deserializeNtB2_14___FieldVisitorNtB14_7Visitor9expecting
FN:102,_RNvXs0_NvXNvNtNtCsaBorPZtlsJg_8latitude6models5events9_1__NtBa_5UsageNtNtCsjYLpgt1qNsr_5serde2de11Deserialize11deserializeNtB5_9___VisitorNtB17_7Visitor9expecting
FN:111,_RNvXs0_NvXNvNtNtCsaBorPZtlsJg_8latitude6models5eventsa_1__NtBa_13ProviderEventNtNtCsjYLpgt1qNsr_5serde2de11Deserialize11deserializeNtB5_9___VisitorNtB1g_7Visitor9expecting
FN:118,_RNvXNvXNvNtNtCsaBorPZtlsJg_8latitude6models5eventsb_1__NtB7_17ProviderEventTypeNtNtCsjYLpgt1qNsr_5serde2de11Deserialize11deserializeNtB2_14___FieldVisitorNtB1h_7Visitor9expecting
FN:130,_RNvXNvXNvNtNtCsaBorPZtlsJg_8latitude6models5eventsc_1__NtB7_9TextDeltaNtNtCsjYLpgt1qNsr_5serde2de11Deserialize11deserializeNtB2_14___FieldVisitorNtB18_7Visitor9expecting
FN:130,_RNvXs0_NvXNvNtNtCsaBorPZtlsJg_8latitude6models5eventsc_1__NtBa_9TextDeltaNtNtCsjYLpgt1qNsr_5serde2de11Deserialize11deserializeNtB5_9___VisitorNtB1b_7Visitor9expecting
FN:137,_RNvXNvXNvNtNtCsaBorPZtlsJg_8latitude6models5eventsd_1__NtB7_13ToolCallEventNtNtCsjYLpgt1qNsr_5serde2de11Deserialize11deserializeNtB2_14___FieldVisitorNtB1d_7Visitor9expecting
FN:137,_RNvXs0_NvXNvNtNtCsaBorPZtlsJg_8latitude6models5eventsd_1__NtBa_13ToolCallEventNtNtCsjYLpgt1qNsr_5serde2de11Deserialize11deserializeNtB5_9___VisitorNtB1g_7Visitor9expecting
FN:146,_RNvXNvXNvNtNtCsaBorPZtlsJg_8latitude6models5eventse_1__NtB7_15ToolResultEventNtNtCsjYLpgt1qNsr_5serde2de11Deserialize11deserializeNtB2_14___FieldVisitorNtB1f_7Visitor9expecting
FN:146,_RNvXs0_NvXNvNtNtCsaBorPZtlsJg_8latitude6models5eventse_1__NtBa_15ToolResultEventNtNtCsjYLpgt1qNsr_5serde2de11Deserialize11deserializeNtB5_9___VisitorNtB1i_7Visitor9expecting
FN:155,_RNvXNvXNvNtNtCsaBorPZtlsJg_8latitude6models5eventsf_1__NtB7_10StepFinishNtNtCsjYLpgt1qNsr_5serde2de11Deserialize11deserializeNtB2_14___FieldVisitorNtB1a_7Visitor9expecting
FN:155,_RNvXs0_NvXNvNtNtCsaBorPZtlsJg_8latitude6models5eventsf_1__NtBa_10StepFinishNtNtCsjYLpgt1qNsr_5serde2de11Deserialize11deserializeNtB5_9___VisitorNtB1d_7Visitor9expecting
FN:165,_RNvXNvXNvNtNtCsaBorPZtlsJg_8latitude6models5eventsg_1__NtB7_12FinishReasonNtNtCsjYLpgt1qNsr_5serde2de11Deserialize11deserializeNtB2_14___FieldVisitorNtB1c_7Visitor9expecting
FN:178,_RNvXNvXNvNtNtCsaBorPZtlsJg_8latitude6models5eventsh_1__NtB7_14ProviderFinishNtNtCsjYLpgt1qNsr_5serde2de11Deserialize11deserializeNtB2_14___FieldVisitorNtB1e_7Visitor9expecting
FN:178,_RNvXs0_NvXNvNtNtCsaBorPZtlsJg_8latitude6models5eventsh_1__NtBa_14ProviderFinishNtNtCsjYLpgt1qNsr_5serde2de11Deserialize11deserializeNtB5_9___VisitorNtB1h_7Visitor9expecting
FN:188,_RNvXNvXNvNtNtCsaBorPZtlsJg_8latitude6models5eventsi_1__NtB7_16ProviderResponseNtNtCsjYLpgt1qNsr_5serde2de11Deserialize11deserializeNtB2_14___FieldVisitorNtB1g_7Visitor9expecting
FN:188,_RNvXs0_NvXNvNtNtCsaBorPZtlsJg_8latitude6models5eventsi_1__NtBa_16ProviderResponseNtNtCsjYLpgt1qNsr_5serde2de11Deserialize11deserializeNtB5_9___VisitorNtB1j_7Visitor9expecting
FN:197,_RNvXNvXNvNtNtCsaBorPZtlsJg_8latitude6models5eventsj_1__NtB7_10ErrorEventNtNtCsjYLpgt1qNsr_5serde2de11Deserialize11deserializeNtB2_14___FieldVisitorNtB1a_7Visitor9expecting
FN:197,_RNvXs0_NvXNvNtNtCsaBorPZtlsJg_8latitude6models5eventsj_1__NtBa_10ErrorEventNtNtCsjYLpgt1qNsr_5serde2de11Deserialize11deserializeNtB5_9___VisitorNtB1d_7Visitor9expecting
FNDA:0,_RNvXNvXNvNtNtCsaBorPZtlsJg_8latitude6models5event1__NtB7_5EventNtNtCsjYLpgt1qNsr_5serde2de11Deserialize11deserializeNtB2_14___FieldVisitorNtB11_7Visitor9expecting
FNDA:0,_RINvXNvXNvNtNtCsaBorPZtlsJg_8latitude6models5event1__NtB8_5EventNtNtCsjYLpgt1qNsr_5serde2de11Deserialize11deserializeNtB3_14___FieldVisitorNtB12_7Visitor9visit_u64pEBc_
FNDA:0,_RINvXNvXNvNtNtCsaBorPZtlsJg_8latitude6models5event1__NtB8_5EventNtNtCsjYLpgt1qNsr_5serde2de11Deserialize11deserializeNtB3_14___FieldVisitorNtB12_7Visitor9visit_strpEBc_
FNDA:0,_RINvXNvXNvNtNtCsaBorPZtlsJg_8latitude6models5event1__NtB8_5EventNtNtCsjYLpgt1qNsr_5serde2de11Deserialize11deserializeNtB3_14___FieldVisitorNtB12_7Visitor11visit_bytespEBc_
FNDA:0,_RINvXs_NvXNvNtNtCsaBorPZtlsJg_8latitude6models5event1__NtBa_5EventNtNtCsjYLpgt1qNsr_5serde2de11Deserialize11deserializeNtB5_7___FieldB12_11deserializepEBe_
FNDA:0,_RNvXs0_NvXNvNtNtCsaBorPZtlsJg_8latitude6models5event1__NtBa_5EventNtNtCsjYLpgt1qNsr_5serde2de11Deserialize11deserializeNtB5_9___VisitorNtB14_7Visitor9expecting
FNDA:0,_RINvXs0_NvXNvNtNtCsaBorPZtlsJg_8latitude6models5event1__NtBb_5EventNtNtCsjYLpgt1qNsr_5serde2de11Deserialize11deserializeNtB6_9___VisitorNtB15_7Visitor10visit_enumpEBf_
FNDA:0,_RNvXNvXNvNtNtCsaBorPZtlsJg_8latitude6models5events_1__NtB7_13LatitudeEventNtNtCsjYLpgt1qNsr_5serde2de11Deserialize11deserializeNtB2_14___FieldVisitorNtB1c_7Visitor9expecting
FNDA:0,_RINvXNvXNvNtNtCsaBorPZtlsJg_8latitude6models5events_1__NtB8_13LatitudeEventNtNtCsjYLpgt1qNsr_5serde2de11Deserialize11deserializeNtB3_14___FieldVisitorNtB1d_7Visitor10visit_boolpEBc_
FNDA:0,_RINvXNvXNvNtNtCsaBorPZtlsJg_8latitude6models5events_1__NtB8_13LatitudeEventNtNtCsjYLpgt1qNsr_5serde2de11Deserialize11deserializeNtB3_14___FieldVisitorNtB1d_7Visitor8visit_i8pEBc_
FNDA:0,_RINvXNvXNvNtNtCsaBorPZtlsJg_8latitude6models5events_1__NtB8_13LatitudeEventNtNtCsjYLpgt1qNsr_5serde2de11Deserialize11deserializeNtB3_14___FieldVisitorNtB1d_7Visitor9visit_i16pEBc_
FNDA:0,_RINvXNvXNvNtNtCsaBorPZtlsJg_8latitude6models5events_1__NtB8_13LatitudeEventNtNtCsjYLpgt1qNsr_5serde2de11Deserialize11deserializeNtB3_14___FieldVisitorNtB1d_7Visitor9visit_i32pEBc_
FNDA:0,_RINvXNvXNvNtNtCsaBorPZtlsJg_8latitude6models5events_1__NtB8_13LatitudeEventNtNtCsjYLpgt1qNsr_5serde2de11Deserialize11deserializeNtB3_14___FieldVisitorNtB1d_7Visitor9visit_i64pEBc_
FNDA:0,_RINvXNvXNvNtNtCsaBorPZtlsJg_8latitude6models5events_1__NtB8_13LatitudeEventNtNtCsjYLpgt1qNsr_5serde2de11Deserialize11deserializeNtB3_14___FieldVisitorNtB1d_7Visitor8visit_u8pEBc_
FNDA:0,_RINvXNvXNvNtNtCsaBorPZtlsJg_8latitude6models5events_1__NtB8_13LatitudeEventNtNtCsjYLpgt1qNsr_5serde2de11Deserialize11deserializeNtB3_14___FieldVisitorNtB1d_7Visitor9visit_u16pEBc_
FNDA:0,_RINvXNvXNvNtNtCsaBorPZtlsJg_8latitude6models5events_1__NtB8_13LatitudeEventNtNtCsjYLpgt1qNsr_5serde2de11Deserialize11deserializeNtB3_14___FieldVisitorNtB1d_7Visitor9visit_u32pEBc_
FNDA:0,_RINvXNvXNvNtNtCsaBorPZtlsJg_8latitude6models5events_1__NtB8_13LatitudeEventNtNtCsjYLpgt1qNsr_5serde2de11Deserialize11deserializeNtB3_14___FieldVisitorNtB1d_7Visitor9visit_u64pEBc_
FNDA:0,_RINvXNvXNvNtNtCsaBorPZtlsJg_8latitude6models5events_1__NtB8_13LatitudeEventNtNtCsjYLpgt1qNsr_5serde2de11Deserialize11deserializeNtB3_14___FieldVisitorNtB1d_7Visitor9visit_f32pEBc_
FNDA:0,_RINvXNvXNvNtNtCsaBorPZtlsJg_8latitude6models5events_1__NtB8_13LatitudeEventNtNtCsjYLpgt1qNsr_5serde2de11Deserialize11deserializeNtB3_14___FieldVisitorNtB1d_7Visitor9visit_f64pEBc_
FNDA:0,_RINvXNvXNvNtNtCsaBorPZtlsJg_8latitude6models5events_1__NtB8_13LatitudeEventNtNtCsjYLpgt1qNsr_5serde2de11Deserialize11deserializeNtB3_14___FieldVisitorNtB1d_7Visitor10visit_charpEBc_
FNDA:0,_RINvXNvXNvNtNtCsaBorPZtlsJg_8latitude6models5events_1__NtB8_13LatitudeEventNtNtCsjYLpgt1qNsr_5serde2de11Deserialize11deserializeNtB3_14___FieldVisitorNtB1d_7Visitor10visit_unitpEBc_
FNDA:0,_RINvXNvXNvNtNtCsaBorPZtlsJg_8latitude6models5events_1__NtB8_13LatitudeEventNtNtCsjYLpgt1qNsr_5serde2de11Deserialize11deserializeNtB3_14___FieldVisitorNtB1d_7Visitor11visit_bytespEBc_
FNDA:0,_RINvXNvXNvNtNtCsaBorPZtlsJg_8latitude6models5events_1__NtB8_13LatitudeEventNtNtCsjYLpgt1qNsr_5serde2de11Deserialize11deserializeNtB3_14___FieldVisitorNtB1d_7Visitor20visit_borrowed_bytespEBc_
FNDA:0,_RNvXs0_NvXNvNtNtCsaBorPZtlsJg_8latitude6models5events5_1__NtBa_4RoleNtNtCsjYLpgt1qNsr_5serde2de11Deserialize11deserializeNtB5_9___VisitorNtB16_7Visitor9expecting
FNDA:0,_RNvXNvXNvNtNtCsaBorPZtlsJg_8latitude6models5events6_1__NtB7_7ContentNtNtCsjYLpgt1qNsr_5serde2de11Deserialize11deserializeNtB2_14___FieldVisitorNtB16_7Visitor9expecting
FNDA:0,_RINvXNvXNvNtNtCsaBorPZtlsJg_8latitude6models5events6_1__NtB8_7ContentNtNtCsjYLpgt1qNsr_5serde2de11Deserialize11deserializeNtB3_14___FieldVisitorNtB17_7Visitor9visit_u64pEBc_
FNDA:0,_RINvXNvXNvNtNtCsaBorPZtlsJg_8latitude6models5events6_1__NtB8_7ContentNtNtCsjYLpgt1qNsr_5serde2de11Deserialize11deserializeNtB3_14___FieldVisitorNtB17_7Visitor9visit_strpEBc_
FNDA:0,_RINvXNvXNvNtNtCsaBorPZtlsJg_8latitude6models5events6_1__NtB8_7ContentNtNtCsjYLpgt1qNsr_5serde2de11Deserialize11deserializeNtB3_14___FieldVisitorNtB17_7Visitor11visit_bytespEBc_
FNDA:0,_RINvXs_NvXNvNtNtCsaBorPZtlsJg_8latitude6models5events6_1__NtBa_7ContentNtNtCsjYLpgt1qNsr_5serde2de11Deserialize11deserializeNtB5_7___FieldB17_11deserializepEBe_
FNDA:0,_RNvXs0_NvXNvNtNtCsaBorPZtlsJg_8latitude6models5events6_1__NtBa_7ContentNtNtCsjYLpgt1qNsr_5serde2de11Deserialize11deserializeNtB5_9___VisitorNtB19_7Visitor9expecting
FNDA:0,_RINvXs0_NvXNvNtNtCsaBorPZtlsJg_8latitude6models5events6_1__NtBb_7ContentNtNtCsjYLpgt1qNsr_5serde2de11Deserialize11deserializeNtB6_9___VisitorNtB1a_7Visitor9visit_seqpEBf_
FNDA:0,_RINvXs0_NvXNvNtNtCsaBorPZtlsJg_8latitude6models5events6_1__NtBb_7ContentNtNtCsjYLpgt1qNsr_5serde2de11Deserialize11deserializeNtB6_9___VisitorNtB1a_7Visitor9visit_mappEBf_
FNDA:0,_RNvXNvXNvNtNtCsaBorPZtlsJg_8latitude6models5eventsa_1__NtB7_13ProviderEventNtNtCsjYLpgt1qNsr_5serde2de11Deserialize11deserializeNtB2_14___FieldVisitorNtB1d_7Visitor9expecting
FNDA:0,_RINvXNvXNvNtNtCsaBorPZtlsJg_8latitude6models5eventsa_1__NtB8_13ProviderEventNtNtCsjYLpgt1qNsr_5serde2de11Deserialize11deserializeNtB3_14___FieldVisitorNtB1e_7Visitor10visit_boolpEBc_
FNDA:0,_RINvXNvXNvNtNtCsaBorPZtlsJg_8latitude6models5eventsa_1__NtB8_13ProviderEventNtNtCsjYLpgt1qNsr_5serde2de11Deserialize11deserializeNtB3_14___FieldVisitorNtB1e_7Visitor8visit_i8pEBc_
FNDA:0,_RINvXNvXNvNtNtCsaBorPZtlsJg_8latitude6models5eventsa_1__NtB8_13ProviderEventNtNtCsjYLpgt1qNsr_5serde2de11Deserialize11deserializeNtB3_14___FieldVisitorNtB1e_7Visitor9visit_i16pEBc_
FNDA:0,_RINvXNvXNvNtNtCsaBorPZtlsJg_8latitude6models5eventsa_1__NtB8_13ProviderEventNtNtCsjYLpgt1qNsr_5serde2de11Deserialize11deserializeNtB3_14___FieldVisitorNtB1e_7Visitor9visit_i32pEBc_
FNDA:0,_RINvXNvXNvNtNtCsaBorPZtlsJg_8latitude6models5eventsa_1__NtB8_13ProviderEventNtNtCsjYLpgt1qNsr_5serde2de11Deserialize11deserializeNtB3_14___FieldVisitorNtB1e_7Visitor9visit_i64pEBc_
FNDA:0,_RINvXNvXNvNtNtCsaBorPZtlsJg_8latitude6models5eventsa_1__NtB8_13ProviderEventNtNtCsjYLpgt1qNsr_5serde2de11Deserialize11deserializeNtB3_14___FieldVisitorNtB1e_7Visitor8visit_u8pEBc_
FNDA:0,_RINvXNvXNvNtNtCsaBorPZtlsJg_8latitude6models5eventsa_1__NtB8_13ProviderEventNtNtCsjYLpgt1qNsr_5serde2de11Deserialize11deserializeNtB3_14___FieldVisitorNtB1e_7Visitor9visit_u16pEBc_
FNDA:0,_RINvXNvXNvNtNtCsaBorPZtlsJg_8latitude6models5eventsa_1__NtB8_13ProviderEventNtNtCsjYLpgt1qNsr_5serde2de11Deserialize11deserializeNtB3_14___FieldVisitorNtB1e_7Visitor9visit_u32pEBc_
FNDA:0,_RINvXNvXNvNtNtCsaBorPZtlsJg_8latitude6models5eventsa_1__NtB8_13ProviderEventNtNtCsjYLpgt1qNsr_5serde2de11Deserialize11deserializeNtB3_14___FieldVisitorNtB1e_7Visitor9visit_u64pEBc_
FNDA:0,_RINvXNvXNvNtNtCsaBorPZtlsJg_8latitude6models5eventsa_1__NtB8_13ProviderEventNtNtCsjYLpgt1qNsr_5serde2de11Deserialize11deserializeNtB3_14___FieldVisitorNtB1e_7Visitor9visit_f32pEBc_
FNDA:0,_RINvXNvXNvNtNtCsaBorPZtlsJg_8latitude6models5eventsa_1__NtB8_13ProviderEventNtNtCsjYLpgt1qNsr_5serde2de11Deserialize11deserializeNtB3_14___FieldVisitorNtB1e_7Visitor9visit_f64pEBc_
FNDA:0,_RINvXNvXNvNtNtCsaBorPZtlsJg_8latitude6models5eventsa_1__NtB8_13ProviderEventNtNtCsjYLpgt1qNsr_5serde2de11Deserialize11deserializeNtB3_14___FieldVisitorNtB1e_7Visitor10visit_charpEBc_
FNDA:0,_RINvXNvXNvNtNtCsaBorPZtlsJg_8latitude6models5eventsa_1__NtB8_13ProviderEventNtNtCsjYLpgt1qNsr_5serde2de11Deserialize11deserializeNtB3_14___FieldVisitorNtB1e_7Visitor10visit_unitpEBc_
FNDA:0,_RINvXNvXNvNtNtCsaBorPZtlsJg_8latitude6models5eventsa_1__NtB8_13ProviderEventNtNtCsjYLpgt1qNsr_5serde2de11Deserialize11deserializeNtB3_14___FieldVisitorNtB1e_7Visitor11visit_bytespEBc_
FNDA:0,_RINvXNvXNvNtNtCsaBorPZtlsJg_8latitude6models5eventsa_1__NtB8_13ProviderEventNtNtCsjYLpgt1qNsr_5serde2de11Deserialize11deserializeNtB3_14___FieldVisitorNtB1e_7Visitor20visit_borrowed_bytespEBc_
FNDA:0,_RNvXs0_NvXNvNtNtCsaBorPZtlsJg_8latitude6models5eventsg_1__NtBa_12FinishReasonNtNtCsjYLpgt1qNsr_5serde2de11Deserialize11deserializeNtB5_9___VisitorNtB1f_7Visitor9expecting
FNDA:0,_RINvXNvXNvNtNtCsaBorPZtlsJg_8latitude6models5events_1__NtB8_13LatitudeEventNtNtCsjYLpgt1qNsr_5serde2de11Deserialize11deserializeNtB3_14___FieldVisitorNtB1d_7Visitor9visit_strNtNtCs51Ps0ib0oUr_10serde_json5error5ErrorEBc_
FNDA:5,_RINvXNvXNvNtNtCsaBorPZtlsJg_8latitude6models5events_1__NtB8_13LatitudeEventNtNtCsjYLpgt1qNsr_5serde2de11Deserialize11deserializeNtB3_14___FieldVisitorNtB1d_7Visitor18visit_borrowed_strNtNtCs51Ps0ib0oUr_10serde_json5error5ErrorEBc_
FNDA:5,_RINvXs_NvXNvNtNtCsaBorPZtlsJg_8latitude6models5events_1__NtBa_13LatitudeEventNtNtCsjYLpgt1qNsr_5serde2de11Deserialize11deserializeNtB5_7___FieldB1d_11deserializeINtNtCs51Ps0ib0oUr_10serde_json2de6MapKeyNtNtB2E_4read9SliceReadEEBe_
FNDA:1,_RINvXs0_NvXNvNtNtCsaBorPZtlsJg_8latitude6models5events_1__NtBb_13LatitudeEventNtNtCsjYLpgt1qNsr_5serde2de11Deserialize11deserializeNtB6_9___VisitorNtB1g_7Visitor9visit_mapINtNtCs51Ps0ib0oUr_10serde_json2de9MapAccessNtNtB2O_4read9SliceReadEEBf_
FNDA:0,_RINvXNvXNvNtNtCsaBorPZtlsJg_8latitude6models5events0_1__NtB8_17LatitudeEventTypeNtNtCsjYLpgt1qNsr_5serde2de11Deserialize11deserializeNtB3_14___FieldVisitorNtB1i_7Visitor9visit_u64NtNtCs51Ps0ib0oUr_10serde_json5error5ErrorEBc_
FNDA:1,_RINvXNvXNvNtNtCsaBorPZtlsJg_8latitude6models5events0_1__NtB8_17LatitudeEventTypeNtNtCsjYLpgt1qNsr_5serde2de11Deserialize11deserializeNtB3_14___FieldVisitorNtB1i_7Visitor9visit_strNtNtCs51Ps0ib0oUr_10serde_json5error5ErrorEBc_
FNDA:0,_RINvXNvXNvNtNtCsaBorPZtlsJg_8latitude6models5events0_1__NtB8_17LatitudeEventTypeNtNtCsjYLpgt1qNsr_5serde2de11Deserialize11deserializeNtB3_14___FieldVisitorNtB1i_7Visitor11visit_bytesNtNtCs51Ps0ib0oUr_10serde_json5error5ErrorEBc_
FNDA:1,_RINvXs_NvXNvNtNtCsaBorPZtlsJg_8latitude6models5events0_1__NtBa_17LatitudeEventTypeNtNtCsjYLpgt1qNsr_5serde2de11Deserialize11deserializeNtB5_7___FieldB1i_11deserializeINtNtNtNtB1m_9___private2de7content22ContentRefDeserializerNtNtCs51Ps0ib0oUr_10serde_json5error5ErrorEEBe_
FNDA:0,_RINvXNvXNvNtNtCsaBorPZtlsJg_8latitude6models5events1_1__NtB8_9ChainStepNtNtCsjYLpgt1qNsr_5serde2de11Deserialize11deserializeNtB3_14___FieldVisitorNtB19_7Visitor9visit_u64NtNtCs51Ps0ib0oUr_10serde_json5error5ErrorEBc_
FNDA:4,_RINvXNvXNvNtNtCsaBorPZtlsJg_8latitude6models5events1_1__NtB8_9ChainStepNtNtCsjYLpgt1qNsr_5serde2de11Deserialize11deserializeNtB3_14___FieldVisitorNtB19_7Visitor9visit_strNtNtCs51Ps0ib0oUr_10serde_json5error5ErrorEBc_
FNDA:0,_RINvXNvXNvNtNtCsaBorPZtlsJg_8latitude6models5events1_1__NtB8_9ChainStepNtNtCsjYLpgt1qNsr_5serde2de11Deserialize11deserializeNtB3_14___FieldVisitorNtB19_7Visitor11visit_bytesNtNtCs51Ps0ib0oUr_10serde_json5error5ErrorEBc_
FNDA:4,_RINvXs_NvXNvNtNtCsaBorPZtlsJg_8latitude6models5events1_1__NtBa_9ChainStepNtNtCsjYLpgt1qNsr_5serde2de11Deserialize11deserializeNtB5_7___FieldB19_11deserializeINtNtNtNtB1d_9___private2de7content19ContentDeserializerNtNtCs51Ps0ib0oUr_10serde_json5error5ErrorEEBe_
FNDA:0,_RINvXs0_NvXNvNtNtCsaBorPZtlsJg_8latitude6models5events1_1__NtBb_9ChainStepNtNtCsjYLpgt1qNsr_5serde2de11Deserialize11deserializeNtB6_9___VisitorNtB1c_7Visitor9visit_seqQINtNtB1c_5value15SeqDeserializerINtNtNtNtCs3LnWLHyH425_4core4iter8adapters3map3MapINtNtNtCsk6rk5B4ufwS_5alloc3vec9into_iter8IntoIterNtNtNtNtB1e_9___private2de7content7ContentENvMse_B4Q_INtB4Q_19ContentDeserializerNtNtCs51Ps0ib0oUr_10serde_json5error5ErrorE3newEB67_EEBf_
FNDA:1,_RINvXs0_NvXNvNtNtCsaBorPZtlsJg_8latitude6models5events1_1__NtBb_9ChainStepNtNtCsjYLpgt1qNsr_5serde2de11Deserialize11deserializeNtB6_9___VisitorNtB1c_7Visitor9visit_mapQINtNtB1c_5value15MapDeserializerINtNtNtNtCs3LnWLHyH425_4core4iter8adapters3map3MapINtNtNtCsk6rk5B4ufwS_5alloc3vec9into_iter8IntoIterTNtNtNtNtB1e_9___private2de7content7ContentB4P_EENCINvB4R_17visit_content_mapB21_NtNtCs51Ps0ib0oUr_10serde_json5error5ErrorE0EB67_EEBf_
FNDA:0,_RINvXNvXNvNtNtCsaBorPZtlsJg_8latitude6models5events2_1__NtB8_13ChainCompleteNtNtCsjYLpgt1qNsr_5serde2de11Deserialize11deserializeNtB3_14___FieldVisitorNtB1e_7Visitor9visit_u64NtNtCs51Ps0ib0oUr_10serde_json5error5ErrorEBc_
FNDA:0,_RINvXNvXNvNtNtCsaBorPZtlsJg_8latitude6models5events2_1__NtB8_13ChainCompleteNtNtCsjYLpgt1qNsr_5serde2de11Deserialize11deserializeNtB3_14___FieldVisitorNtB1e_7Visitor9visit_strNtNtCs51Ps0ib0oUr_10serde_json5error5ErrorEBc_
FNDA:0,_RINvXNvXNvNtNtCsaBorPZtlsJg_8latitude6models5events2_1__NtB8_13ChainCompleteNtNtCsjYLpgt1qNsr_5serde2de11Deserialize11deserializeNtB3_14___FieldVisitorNtB1e_7Visitor11visit_bytesNtNtCs51Ps0ib0oUr_10serde_json5error5ErrorEBc_
FNDA:0,_RINvXs_NvXNvNtNtCsaBorPZtlsJg_8latitude6models5events2_1__NtBa_13ChainCompleteNtNtCsjYLpgt1qNsr_5serde2de11Deserialize11deserializeNtB5_7___FieldB1e_11deserializeINtNtNtNtB1i_9___private2de7content19ContentDeserializerNtNtCs51Ps0ib0oUr_10serde_json5error5ErrorEEBe_
FNDA:0,_RINvXs0_NvXNvNtNtCsaBorPZtlsJg_8latitude6models5events2_1__NtBb_13ChainCompleteNtNtCsjYLpgt1qNsr_5serde2de11Deserialize11deserializeNtB6_9___VisitorNtB1h_7Visitor9visit_seqQINtNtB1h_5value15SeqDeserializerINtNtNtNtCs3LnWLHyH425_4core4iter8adapters3map3MapINtNtNtCsk6rk5B4ufwS_5alloc3vec9into_iter8IntoIterNtNtNtNtB1j_9___private2de7content7ContentENvMse_B4V_INtB4V_19ContentDeserializerNtNtCs51Ps0ib0oUr_10serde_json5error5ErrorE3newEB6c_EEBf_
FNDA:0,_RINvXs0_NvXNvNtNtCsaBorPZtlsJg_8latitude6models5events2_1__NtBb_13ChainCompleteNtNtCsjYLpgt1qNsr_5serde2de11Deserialize11deserializeNtB6_9___VisitorNtB1h_7Visitor9visit_mapQINtNtB1h_5value15MapDeserializerINtNtNtNtCs3LnWLHyH425_4core4iter8adapters3map3MapINtNtNtCsk6rk5B4ufwS_5alloc3vec9into_iter8IntoIterTNtNtNtNtB1j_9___private2de7content7ContentB4U_EENCINvB4W_17visit_content_mapB26_NtNtCs51Ps0ib0oUr_10serde_json5error5ErrorE0EB6c_EEBf_
FNDA:0,_RINvXNvXNvNtNtCsaBorPZtlsJg_8latitude6models5events3_1__NtB8_6ConfigNtNtCsjYLpgt1qNsr_5serde2de11Deserialize11deserializeNtB3_14___FieldVisitorNtB16_7Visitor9visit_u64NtNtCs51Ps0ib0oUr_10serde_json5error5ErrorEBc_
FNDA:2,_RINvXNvXNvNtNtCsaBorPZtlsJg_8latitude6models5events3_1__NtB8_6ConfigNtNtCsjYLpgt1qNsr_5serde2de11Deserialize11deserializeNtB3_14___FieldVisitorNtB16_7Visitor9visit_strNtNtCs51Ps0ib0oUr_10serde_json5error5ErrorEBc_
FNDA:0,_RINvXNvXNvNtNtCsaBorPZtlsJg_8latitude6models5events3_1__NtB8_6ConfigNtNtCsjYLpgt1qNsr_5serde2de11Deserialize11deserializeNtB3_14___FieldVisitorNtB16_7Visitor11visit_bytesNtNtCs51Ps0ib0oUr_10serde_json5error5ErrorEBc_
FNDA:2,_RINvXs_NvXNvNtNtCsaBorPZtlsJg_8latitude6models5events3_1__NtBa_6ConfigNtNtCsjYLpgt1qNsr_5serde2de11Deserialize11deserializeNtB5_7___FieldB16_11deserializeINtNtNtNtB1a_9___private2de7content19ContentDeserializerNtNtCs51Ps0ib0oUr_10serde_json5error5ErrorEEBe_
FNDA:0,_RINvXs0_NvXNvNtNtCsaBorPZtlsJg_8latitude6models5events3_1__NtBb_6ConfigNtNtCsjYLpgt1qNsr_5serde2de11Deserialize11deserializeNtB6_9___VisitorNtB19_7Visitor9visit_seqQINtNtB19_5value15SeqDeserializerINtNtNtNtCs3LnWLHyH425_4core4iter8adapters3map3MapINtNtNtCsk6rk5B4ufwS_5alloc3vec9into_iter8IntoIterNtNtNtNtB1b_9___private2de7content7ContentENvMse_B4N_INtB4N_19ContentDeserializerNtNtCs51Ps0ib0oUr_10serde_json5error5ErrorE3newEB64_EEBf_
FNDA:1,_RINvXs0_NvXNvNtNtCsaBorPZtlsJg_8latitude6models5events3_1__NtBb_6ConfigNtNtCsjYLpgt1qNsr_5serde2de11Deserialize11deserializeNtB6_9___VisitorNtB19_7Visitor9visit_mapQINtNtB19_5value15MapDeserializerINtNtNtNtCs3LnWLHyH425_4core4iter8adapters3map3MapINtNtNtCsk6rk5B4ufwS_5alloc3vec9into_iter8IntoIterTNtNtNtNtB1b_9___private2de7content7ContentB4M_EENCINvB4O_17visit_content_mapB1Y_NtNtCs51Ps0ib0oUr_10serde_json5error5ErrorE0EB64_EEBf_
FNDA:0,_RINvXNvXNvNtNtCsaBorPZtlsJg_8latitude6models5events4_1__NtB8_7MessageNtNtCsjYLpgt1qNsr_5serde2de11Deserialize11deserializeNtB3_14___FieldVisitorNtB17_7Visitor9visit_u64NtNtCs51Ps0ib0oUr_10serde_json5error5ErrorEBc_
FNDA:2,_RINvXNvXNvNtNtCsaBorPZtlsJg_8latitude6models5events4_1__NtB8_7MessageNtNtCsjYLpgt1qNsr_5serde2de11Deserialize11deserializeNtB3_14___FieldVisitorNtB17_7Visitor9visit_strNtNtCs51Ps0ib0oUr_10serde_json5error5ErrorEBc_
FNDA:0,_RINvXNvXNvNtNtCsaBorPZtlsJg_8latitude6models5events4_1__NtB8_7MessageNtNtCsjYLpgt1qNsr_5serde2de11Deserialize11deserializeNtB3_14___FieldVisitorNtB17_7Visitor11visit_bytesNtNtCs51Ps0ib0oUr_10serde_json5error5ErrorEBc_
FNDA:2,_RINvXs_NvXNvNtNtCsaBorPZtlsJg_8latitude6models5events4_1__NtBa_7MessageNtNtCsjYLpgt1qNsr_5serde2de11Deserialize11deserializeNtB5_7___FieldB17_11deserializeINtNtNtNtB1b_9___private2de7content19ContentDeserializerNtNtCs51Ps0ib0oUr_10serde_json5error5ErrorEEBe_
FNDA:0,_RINvXs0_NvXNvNtNtCsaBorPZtlsJg_8latitude6models5events4_1__NtBb_7MessageNtNtCsjYLpgt1qNsr_5serde2de11Deserialize11deserializeNtB6_9___VisitorNtB1a_7Visitor9visit_seqQINtNtB1a_5value15SeqDeserializerINtNtNtNtCs3LnWLHyH425_4core4iter8adapters3map3MapINtNtNtCsk6rk5B4ufwS_5alloc3vec9into_iter8IntoIterNtNtNtNtB1c_9___private2de7content7ContentENvMse_B4O_INtB4O_19ContentDeserializerNtNtCs51Ps0ib0oUr_10serde_json5error5ErrorE3newEB65_EEBf_
FNDA:1,_RINvXs0_NvXNvNtNtCsaBorPZtlsJg_8latitude6models5events4_1__NtBb_7MessageNtNtCsjYLpgt1qNsr_5serde2de11Deserialize11deserializeNtB6_9___VisitorNtB1a_7Visitor9visit_mapQINtNtB1a_5value15MapDeserializerINtNtNtNtCs3LnWLHyH425_4core4iter8adapters3map3MapINtNtNtCsk6rk5B4ufwS_5alloc3vec9into_iter8IntoIterTNtNtNtNtB1c_9___private2de7content7ContentB4N_EENCINvB4P_17visit_content_mapB1Z_NtNtCs51Ps0ib0oUr_10serde_json5error5ErrorE0EB65_EEBf_
FNDA:0,_RINvXNvXNvNtNtCsaBorPZtlsJg_8latitude6models5events5_1__NtB8_4RoleNtNtCsjYLpgt1qNsr_5serde2de11Deserialize11deserializeNtB3_14___FieldVisitorNtB14_7Visitor9visit_u64NtNtCs51Ps0ib0oUr_10serde_json5error5ErrorEBc_
FNDA:1,_RINvXNvXNvNtNtCsaBorPZtlsJg_8latitude6models5events5_1__NtB8_4RoleNtNtCsjYLpgt1qNsr_5serde2de11Deserialize11deserializeNtB3_14___FieldVisitorNtB14_7Visitor9visit_strNtNtCs51Ps0ib0oUr_10serde_json5error5ErrorEBc_
FNDA:0,_RINvXNvXNvNtNtCsaBorPZtlsJg_8latitude6models5events5_1__NtB8_4RoleNtNtCsjYLpgt1qNsr_5serde2de11Deserialize11deserializeNtB3_14___FieldVisitorNtB14_7Visitor11visit_bytesNtNtCs51Ps0ib0oUr_10serde_json5error5ErrorEBc_
FNDA:1,_RINvXs_NvXNvNtNtCsaBorPZtlsJg_8latitude6models5events5_1__NtBa_4RoleNtNtCsjYLpgt1qNsr_5serde2de11Deserialize11deserializeNtB5_7___FieldB14_11deserializeINtNtNtNtB18_9___private2de7content19ContentDeserializerNtNtCs51Ps0ib0oUr_10serde_json5error5ErrorEEBe_
FNDA:1,_RINvXs0_NvXNvNtNtCsaBorPZtlsJg_8latitude6models5events5_1__NtBb_4RoleNtNtCsjYLpgt1qNsr_5serde2de11Deserialize11deserializeNtB6_9___VisitorNtB17_7Visitor10visit_enumINtNtNtNtB19_9___private2de7content16EnumDeserializerNtNtCs51Ps0ib0oUr_10serde_json5error5ErrorEEBf_
FNDA:0,_RINvXNvXNvNtNtCsaBorPZtlsJg_8latitude6models5events7_1__NtB8_8ResponseNtNtCsjYLpgt1qNsr_5serde2de11Deserialize11deserializeNtB3_14___FieldVisitorNtB18_7Visitor9visit_u64NtNtCs51Ps0ib0oUr_10serde_json5error5ErrorEBc_
FNDA:0,_RINvXNvXNvNtNtCsaBorPZtlsJg_8latitude6models5events7_1__NtB8_8ResponseNtNtCsjYLpgt1qNsr_5serde2de11Deserialize11deserializeNtB3_14___FieldVisitorNtB18_7Visitor9visit_strNtNtCs51Ps0ib0oUr_10serde_json5error5ErrorEBc_
FNDA:0,_RINvXNvXNvNtNtCsaBorPZtlsJg_8latitude6models5events7_1__NtB8_8ResponseNtNtCsjYLpgt1qNsr_5serde2de11Deserialize11deserializeNtB3_14___FieldVisitorNtB18_7Visitor11visit_bytesNtNtCs51Ps0ib0oUr_10serde_json5error5ErrorEBc_
FNDA:0,_RINvXs_NvXNvNtNtCsaBorPZtlsJg_8latitude6models5events7_1__NtBa_8ResponseNtNtCsjYLpgt1qNsr_5serde2de11Deserialize11deserializeNtB5_7___FieldB18_11deserializeINtNtNtNtB1c_9___private2de7content19ContentDeserializerNtNtCs51Ps0ib0oUr_10serde_json5error5ErrorEEBe_
FNDA:0,_RINvXs0_NvXNvNtNtCsaBorPZtlsJg_8latitude6models5events7_1__NtBb_8ResponseNtNtCsjYLpgt1qNsr_5serde2de11Deserialize11deserializeNtB6_9___VisitorNtB1b_7Visitor9visit_seqQINtNtB1b_5value15SeqDeserializerINtNtNtNtCs3LnWLHyH425_4core4iter8adapters3map3MapINtNtNtCsk6rk5B4ufwS_5alloc3vec9into_iter8IntoIterNtNtNtNtB1d_9___private2de7content7ContentENvMse_B4P_INtB4P_19ContentDeserializerNtNtCs51Ps0ib0oUr_10serde_json5error5ErrorE3newEB66_EEBf_
FNDA:0,_RINvXs0_NvXNvNtNtCsaBorPZtlsJg_8latitude6models5events7_1__NtBb_8ResponseNtNtCsjYLpgt1qNsr_5serde2de11Deserialize11deserializeNtB6_9___VisitorNtB1b_7Visitor9visit_mapQINtNtB1b_5value15MapDeserializerINtNtNtNtCs3LnWLHyH425_4core4iter8adapters3map3MapINtNtNtCsk6rk5B4ufwS_5alloc3vec9into_iter8IntoIterTNtNtNtNtB1d_9___private2de7content7ContentB4O_EENCINvB4Q_17visit_content_mapB20_NtNtCs51Ps0ib0oUr_10serde_json5error5ErrorE0EB66_EEBf_
FNDA:0,_RINvXNvXNvNtNtCsaBorPZtlsJg_8latitude6models5events8_1__NtB8_8ToolCallNtNtCsjYLpgt1qNsr_5serde2de11Deserialize11deserializeNtB3_14___FieldVisitorNtB18_7Visitor9visit_u64NtNtCs51Ps0ib0oUr_10serde_json5error5ErrorEBc_
FNDA:0,_RINvXNvXNvNtNtCsaBorPZtlsJg_8latitude6models5events8_1__NtB8_8ToolCallNtNtCsjYLpgt1qNsr_5serde2de11Deserialize11deserializeNtB3_14___FieldVisitorNtB18_7Visitor9visit_strNtNtCs51Ps0ib0oUr_10serde_json5error5ErrorEBc_
FNDA:0,_RINvXNvXNvNtNtCsaBorPZtlsJg_8latitude6models5events8_1__NtB8_8ToolCallNtNtCsjYLpgt1qNsr_5serde2de11Deserialize11deserializeNtB3_14___FieldVisitorNtB18_7Visitor11visit_bytesNtNtCs51Ps0ib0oUr_10serde_json5error5ErrorEBc_
FNDA:0,_RINvXs_NvXNvNtNtCsaBorPZtlsJg_8latitude6models5events8_1__NtBa_8ToolCallNtNtCsjYLpgt1qNsr_5serde2de11Deserialize11deserializeNtB5_7___FieldB18_11deserializeINtNtNtNtB1c_9___private2de7content19ContentDeserializerNtNtCs51Ps0ib0oUr_10serde_json5error5ErrorEEBe_
FNDA:0,_RINvXs0_NvXNvNtNtCsaBorPZtlsJg_8latitude6models5events8_1__NtBb_8ToolCallNtNtCsjYLpgt1qNsr_5serde2de11Deserialize11deserializeNtB6_9___VisitorNtB1b_7Visitor9visit_seqQINtNtB1b_5value15SeqDeserializerINtNtNtNtCs3LnWLHyH425_4core4iter8adapters3map3MapINtNtNtCsk6rk5B4ufwS_5alloc3vec9into_iter8IntoIterNtNtNtNtB1d_9___private2de7content7ContentENvMse_B4P_INtB4P_19ContentDeserializerNtNtCs51Ps0ib0oUr_10serde_json5error5ErrorE3newEB66_EEBf_
FNDA:0,_RINvXs0_NvXNvNtNtCsaBorPZtlsJg_8latitude6models5events8_1__NtBb_8ToolCallNtNtCsjYLpgt1qNsr_5serde2de11Deserialize11deserializeNtB6_9___VisitorNtB1b_7Visitor9visit_mapQINtNtB1b_5value15MapDeserializerINtNtNtNtCs3LnWLHyH425_4core4iter8adapters3map3MapINtNtNtCsk6rk5B4ufwS_5alloc3vec9into_iter8IntoIterTNtNtNtNtB1d_9___private2de7content7ContentB4O_EENCINvB4Q_17visit_content_mapB20_NtNtCs51Ps0ib0oUr_10serde_json5error5ErrorE0EB66_EEBf_
FNDA:0,_RINvXNvXNvNtNtCsaBorPZtlsJg_8latitude6models5events9_1__NtB8_5UsageNtNtCsjYLpgt1qNsr_5serde2de11Deserialize11deserializeNtB3_14___FieldVisitorNtB15_7Visitor9visit_u64NtNtCs51Ps0ib0oUr_10serde_json5error5ErrorEBc_
FNDA:0,_RINvXNvXNvNtNtCsaBorPZtlsJg_8latitude6models5events9_1__NtB8_5UsageNtNtCsjYLpgt1qNsr_5serde2de11Deserialize11deserializeNtB3_14___FieldVisitorNtB15_7Visitor9visit_strNtNtCs51Ps0ib0oUr_10serde_json5error5ErrorEBc_
FNDA:0,_RINvXNvXNvNtNtCsaBorPZtlsJg_8latitude6models5events9_1__NtB8_5UsageNtNtCsjYLpgt1qNsr_5serde2de11Deserialize11deserializeNtB3_14___FieldVisitorNtB15_7Visitor11visit_bytesNtNtCs51Ps0ib0oUr_10serde_json5error5ErrorEBc_
FNDA:0,_RINvXs_NvXNvNtNtCsaBorPZtlsJg_8latitude6models5events9_1__NtBa_5UsageNtNtCsjYLpgt1qNsr_5serde2de11Deserialize11deserializeNtB5_7___FieldB15_11deserializeINtNtNtNtB19_9___private2de7content19ContentDeserializerNtNtCs51Ps0ib0oUr_10serde_json5error5ErrorEEBe_
FNDA:0,_RINvXs0_NvXNvNtNtCsaBorPZtlsJg_8latitude6models5events9_1__NtBb_5UsageNtNtCsjYLpgt1qNsr_5serde2de11Deserialize11deserializeNtB6_9___VisitorNtB18_7Visitor9visit_seqQINtNtB18_5value15SeqDeserializerINtNtNtNtCs3LnWLHyH425_4core4iter8adapters3map3MapINtNtNtCsk6rk5B4ufwS_5alloc3vec9into_iter8IntoIterNtNtNtNtB1a_9___private2de7content7ContentENvMse_B4M_INtB4M_19ContentDeserializerNtNtCs51Ps0ib0oUr_10serde_json5error5ErrorE3newEB63_EEBf_
FNDA:0,_RINvXs0_NvXNvNtNtCsaBorPZtlsJg_8latitude6models5events9_1__NtBb_5UsageNtNtCsjYLpgt1qNsr_5serde2de11Deserialize11deserializeNtB6_9___VisitorNtB18_7Visitor9visit_mapQINtNtB18_5value15MapDeserializerINtNtNtNtCs3LnWLHyH425_4core4iter8adapters3map3MapINtNtNtCsk6rk5B4ufwS_5alloc3vec9into_iter8IntoIterTNtNtNtNtB1a_9___private2de7content7ContentB4L_EENCINvB4N_17visit_content_mapB1X_NtNtCs51Ps0ib0oUr_10serde_json5error5ErrorE0EB63_EEBf_
FNDA:0,_RINvXNvXNvNtNtCsaBorPZtlsJg_8latitude6models5eventsa_1__NtB8_13ProviderEventNtNtCsjYLpgt1qNsr_5serde2de11Deserialize11deserializeNtB3_14___FieldVisitorNtB1e_7Visitor9visit_strNtNtCs51Ps0ib0oUr_10serde_json5error5ErrorEBc_
FNDA:2,_RINvXNvXNvNtNtCsaBorPZtlsJg_8latitude6models5eventsa_1__NtB8_13ProviderEventNtNtCsjYLpgt1qNsr_5serde2de11Deserialize11deserializeNtB3_14___FieldVisitorNtB1e_7Visitor18visit_borrowed_strNtNtCs51Ps0ib0oUr_10serde_json5error5ErrorEBc_
FNDA:2,_RINvXs_NvXNvNtNtCsaBorPZtlsJg_8latitude6models5eventsa_1__NtBa_13ProviderEventNtNtCsjYLpgt1qNsr_5serde2de11Deserialize11deserializeNtB5_7___FieldB1e_11deserializeINtNtCs51Ps0ib0oUr_10serde_json2de6MapKeyNtNtB2F_4read9SliceReadEEBe_
FNDA:1,_RINvXs0_NvXNvNtNtCsaBorPZtlsJg_8latitude6models5eventsa_1__NtBb_13ProviderEventNtNtCsjYLpgt1qNsr_5serde2de11Deserialize11deserializeNtB6_9___VisitorNtB1h_7Visitor9visit_mapINtNtCs51Ps0ib0oUr_10serde_json2de9MapAccessNtNtB2P_4read9SliceReadEEBf_
FNDA:0,_RINvXNvXNvNtNtCsaBorPZtlsJg_8latitude6models5eventsb_1__NtB8_17ProviderEventTypeNtNtCsjYLpgt1qNsr_5serde2de11Deserialize11deserializeNtB3_14___FieldVisitorNtB1i_7Visitor9visit_u64NtNtCs51Ps0ib0oUr_10serde_json5error5ErrorEBc_
FNDA:1,_RINvXNvXNvNtNtCsaBorPZtlsJg_8latitude6models5eventsb_1__NtB8_17ProviderEventTypeNtNtCsjYLpgt1qNsr_5serde2de11Deserialize11deserializeNtB3_14___FieldVisitorNtB1i_7Visitor9visit_strNtNtCs51Ps0ib0oUr_10serde_json5error5ErrorEBc_
FNDA:0,_RINvXNvXNvNtNtCsaBorPZtlsJg_8latitude6models5eventsb_1__NtB8_17ProviderEventTypeNtNtCsjYLpgt1qNsr_5serde2de11Deserialize11deserializeNtB3_14___FieldVisitorNtB1i_7Visitor11visit_bytesNtNtCs51Ps0ib0oUr_10serde_json5error5ErrorEBc_
FNDA:1,_RINvXs_NvXNvNtNtCsaBorPZtlsJg_8latitude6models5eventsb_1__NtBa_17ProviderEventTypeNtNtCsjYLpgt1qNsr_5serde2de11Deserialize11deserializeNtB5_7___FieldB1i_11deserializeINtNtNtNtB1m_9___private2de7content22ContentRefDeserializerNtNtCs51Ps0ib0oUr_10serde_json5error5ErrorEEBe_
FNDA:0,_RINvXNvXNvNtNtCsaBorPZtlsJg_8latitude6models5eventsc_1__NtB8_9TextDeltaNtNtCsjYLpgt1qNsr_5serde2de11Deserialize11deserializeNtB3_14___FieldVisitorNtB19_7Visitor9visit_u64NtNtCs51Ps0ib0oUr_10serde_json5error5ErrorEBc_
FNDA:1,_RINvXNvXNvNtNtCsaBorPZtlsJg_8latitude6models5eventsc_1__NtB8_9TextDeltaNtNtCsjYLpgt1qNsr_5serde2de11Deserialize11deserializeNtB3_14___FieldVisitorNtB19_7Visitor9visit_strNtNtCs51Ps0ib0oUr_10serde_json5error5ErrorEBc_
FNDA:0,_RINvXNvXNvNtNtCsaBorPZtlsJg_8latitude6models5eventsc_1__NtB8_9TextDeltaNtNtCsjYLpgt1qNsr_5serde2de11Deserialize11deserializeNtB3_14___FieldVisitorNtB19_7Visitor11visit_bytesNtNtCs51Ps0ib0oUr_10serde_json5error5ErrorEBc_
FNDA:1,_RINvXs_NvXNvNtNtCsaBorPZtlsJg_8latitude6models5eventsc_1__NtBa_9TextDeltaNtNtCsjYLpgt1qNsr_5serde2de11Deserialize11deserializeNtB5_7___FieldB19_11deserializeINtNtNtNtB1d_9___private2de7content19ContentDeserializerNtNtCs51Ps0ib0oUr_10serde_json5error5ErrorEEBe_
FNDA:0,_RINvXs0_NvXNvNtNtCsaBorPZtlsJg_8latitude6models5eventsc_1__NtBb_9TextDeltaNtNtCsjYLpgt1qNsr_5serde2de11Deserialize11deserializeNtB6_9___VisitorNtB1c_7Visitor9visit_seqQINtNtB1c_5value15SeqDeserializerINtNtNtNtCs3LnWLHyH425_4core4iter8adapters3map3MapINtNtNtCsk6rk5B4ufwS_5alloc3vec9into_iter8IntoIterNtNtNtNtB1e_9___private2de7content7ContentENvMse_B4Q_INtB4Q_19ContentDeserializerNtNtCs51Ps0ib0oUr_10serde_json5error5ErrorE3newEB67_EEBf_
FNDA:1,_RINvXs0_NvXNvNtNtCsaBorPZtlsJg_8latitude6models5eventsc_1__NtBb_9TextDeltaNtNtCsjYLpgt1qNsr_5serde2de11Deserialize11deserializeNtB6_9___VisitorNtB1c_7Visitor9visit_mapQINtNtB1c_5value15MapDeserializerINtNtNtNtCs3LnWLHyH425_4core4iter8adapters3map3MapINtNtNtCsk6rk5B4ufwS_5alloc3vec9into_iter8IntoIterTNtNtNtNtB1e_9___private2de7content7ContentB4P_EENCINvB4R_17visit_content_mapB21_NtNtCs51Ps0ib0oUr_10serde_json5error5ErrorE0EB67_EEBf_
FNDA:0,_RINvXNvXNvNtNtCsaBorPZtlsJg_8latitude6models5eventsd_1__NtB8_13ToolCallEventNtNtCsjYLpgt1qNsr_5serde2de11Deserialize11deserializeNtB3_14___FieldVisitorNtB1e_7Visitor9visit_u64NtNtCs51Ps0ib0oUr_10serde_json5error5ErrorEBc_
FNDA:0,_RINvXNvXNvNtNtCsaBorPZtlsJg_8latitude6models5eventsd_1__NtB8_13ToolCallEventNtNtCsjYLpgt1qNsr_5serde2de11Deserialize11deserializeNtB3_14___FieldVisitorNtB1e_7Visitor9visit_strNtNtCs51Ps0ib0oUr_10serde_json5error5ErrorEBc_
FNDA:0,_RINvXNvXNvNtNtCsaBorPZtlsJg_8latitude6models5eventsd_1__NtB8_13ToolCallEventNtNtCsjYLpgt1qNsr_5serde2de11Deserialize11deserializeNtB3_14___FieldVisitorNtB1e_7Visitor11visit_bytesNtNtCs51Ps0ib0oUr_10serde_json5error5ErrorEBc_
FNDA:0,_RINvXs_NvXNvNtNtCsaBorPZtlsJg_8latitude6models5eventsd_1__NtBa_13ToolCallEventNtNtCsjYLpgt1qNsr_5serde2de11Deserialize11deserializeNtB5_7___FieldB1e_11deserializeINtNtNtNtB1i_9___private2de7content19ContentDeserializerNtNtCs51Ps0ib0oUr_10serde_json5error5ErrorEEBe_
FNDA:0,_RINvXs0_NvXNvNtNtCsaBorPZtlsJg_8latitude6models5eventsd_1__NtBb_13ToolCallEventNtNtCsjYLpgt1qNsr_5serde2de11Deserialize11deserializeNtB6_9___VisitorNtB1h_7Visitor9visit_seqQINtNtB1h_5value15SeqDeserializerINtNtNtNtCs3LnWLHyH425_4core4iter8adapters3map3MapINtNtNtCsk6rk5B4ufwS_5alloc3vec9into_iter8IntoIterNtNtNtNtB1j_9___private2de7content7ContentENvMse_B4V_INtB4V_19ContentDeserializerNtNtCs51Ps0ib0oUr_10serde_json5error5ErrorE3newEB6c_EEBf_
FNDA:0,_RINvXs0_NvXNvNtNtCsaBorPZtlsJg_8latitude6models5eventsd_1__NtBb_13ToolCallEventNtNtCsjYLpgt1qNsr_5serde2de11Deserialize11deserializeNtB6_9___VisitorNtB1h_7Visitor9visit_mapQINtNtB1h_5value15MapDeserializerINtNtNtNtCs3LnWLHyH425_4core4iter8adapters3map3MapINtNtNtCsk6rk5B4ufwS_5alloc3vec9into_iter8IntoIterTNtNtNtNtB1j_9___private2de7content7ContentB4U_EENCINvB4W_17visit_content_mapB26_NtNtCs51Ps0ib0oUr_10serde_json5error5ErrorE0EB6c_EEBf_
FNDA:0,_RINvXNvXNvNtNtCsaBorPZtlsJg_8latitude6models5eventse_1__NtB8_15ToolResultEventNtNtCsjYLpgt1qNsr_5serde2de11Deserialize11deserializeNtB3_14___FieldVisitorNtB1g_7Visitor9visit_u64NtNtCs51Ps0ib0oUr_10serde_json5error5ErrorEBc_
FNDA:0,_RINvXNvXNvNtNtCsaBorPZtlsJg_8latitude6models5eventse_1__NtB8_15ToolResultEventNtNtCsjYLpgt1qNsr_5serde2de11Deserialize11deserializeNtB3_14___FieldVisitorNtB1g_7Visitor9visit_strNtNtCs51Ps0ib0oUr_10serde_json5error5ErrorEBc_
FNDA:0,_RINvXNvXNvNtNtCsaBorPZtlsJg_8latitude6models5eventse_1__NtB8_15ToolResultEventNtNtCsjYLpgt1qNsr_5serde2de11Deserialize11deserializeNtB3_14___FieldVisitorNtB1g_7Visitor11visit_bytesNtNtCs51Ps0ib0oUr_10serde_json5error5ErrorEBc_
FNDA:0,_RINvXs_NvXNvNtNtCsaBorPZtlsJg_8latitude6models5eventse_1__NtBa_15ToolResultEventNtNtCsjYLpgt1qNsr_5serde2de11Deserialize11deserializeNtB5_7___FieldB1g_11deserializeINtNtNtNtB1k_9___private2de7content19ContentDeserializerNtNtCs51Ps0ib0oUr_10serde_json5error5ErrorEEBe_
FNDA:0,_RINvXs0_NvXNvNtNtCsaBorPZtlsJg_8latitude6models5eventse_1__NtBb_15ToolResultEventNtNtCsjYLpgt1qNsr_5serde2de11Deserialize11deserializeNtB6_9___VisitorNtB1j_7Visitor9visit_seqQINtNtB1j_5value15SeqDeserializerINtNtNtNtCs3LnWLHyH425_4core4iter8adapters3map3MapINtNtNtCsk6rk5B4ufwS_5alloc3vec9into_iter8IntoIterNtNtNtNtB1l_9___private2de7content7ContentENvMse_B4X_INtB4X_19ContentDeserializerNtNtCs51Ps0ib0oUr_10serde_json5error5ErrorE3newEB6e_EEBf_
FNDA:0,_RINvXs0_NvXNvNtNtCsaBorPZtlsJg_8latitude6models5eventse_1__NtBb_15ToolResultEventNtNtCsjYLpgt1qNsr_5serde2de11Deserialize11deserializeNtB6_9___VisitorNtB1j_7Visitor9visit_mapQINtNtB1j_5value15MapDeserializerINtNtNtNtCs3LnWLHyH425_4core4iter8adapters3map3MapINtNtNtCsk6rk5B4ufwS_5alloc3vec9into_iter8IntoIterTNtNtNtNtB1l_9___private2de7content7ContentB4W_EENCINvB4Y_17visit_content_mapB28_NtNtCs51Ps0ib0oUr_10serde_json5error5ErrorE0EB6e_EEBf_
FNDA:0,_RINvXNvXNvNtNtCsaBorPZtlsJg_8latitude6models5eventsf_1__NtB8_10StepFinishNtNtCsjYLpgt1qNsr_5serde2de11Deserialize11deserializeNtB3_14___FieldVisitorNtB1b_7Visitor9visit_u64NtNtCs51Ps0ib0oUr_10serde_json5error5ErrorEBc_
FNDA:0,_RINvXNvXNvNtNtCsaBorPZtlsJg_8latitude6models5eventsf_1__NtB8_10StepFinishNtNtCsjYLpgt1qNsr_5serde2de11Deserialize11deserializeNtB3_14___FieldVisitorNtB1b_7Visitor9visit_strNtNtCs51Ps0ib0oUr_10serde_json5error5ErrorEBc_
FNDA:0,_RINvXNvXNvNtNtCsaBorPZtlsJg_8latitude6models5eventsf_1__NtB8_10StepFinishNtNtCsjYLpgt1qNsr_5serde2de11Deserialize11deserializeNtB3_14___FieldVisitorNtB1b_7Visitor11visit_bytesNtNtCs51Ps0ib0oUr_10serde_json5error5ErrorEBc_
FNDA:0,_RINvXs_NvXNvNtNtCsaBorPZtlsJg_8latitude6models5eventsf_1__NtBa_10StepFinishNtNtCsjYLpgt1qNsr_5serde2de11Deserialize11deserializeNtB5_7___FieldB1b_11deserializeINtNtNtNtB1f_9___private2de7content19ContentDeserializerNtNtCs51Ps0ib0oUr_10serde_json5error5ErrorEEBe_
FNDA:0,_RINvXs0_NvXNvNtNtCsaBorPZtlsJg_8latitude6models5eventsf_1__NtBb_10StepFinishNtNtCsjYLpgt1qNsr_5serde2de11Deserialize11deserializeNtB6_9___VisitorNtB1e_7Visitor9visit_seqQINtNtB1e_5value15SeqDeserializerINtNtNtNtCs3LnWLHyH425_4core4iter8adapters3map3MapINtNtNtCsk6rk5B4ufwS_5alloc3vec9into_iter8IntoIterNtNtNtNtB1g_9___private2de7content7ContentENvMse_B4S_INtB4S_19ContentDeserializerNtNtCs51Ps0ib0oUr_10serde_json5error5ErrorE3newEB69_EEBf_
FNDA:0,_RINvXs0_NvXNvNtNtCsaBorPZtlsJg_8latitude6models5eventsf_1__NtBb_10StepFinishNtNtCsjYLpgt1qNsr_5serde2de11Deserialize11deserializeNtB6_9___VisitorNtB1e_7Visitor9visit_mapQINtNtB1e_5value15MapDeserializerINtNtNtNtCs3LnWLHyH425_4core4iter8adapters3map3MapINtNtNtCsk6rk5B4ufwS_5alloc3vec9into_iter8IntoIterTNtNtNtNtB1g_9___private2de7content7ContentB4R_EENCINvB4T_17visit_content_mapB23_NtNtCs51Ps0ib0oUr_10serde_json5error5ErrorE0EB69_EEBf_
FNDA:0,_RINvXNvXNvNtNtCsaBorPZtlsJg_8latitude6models5eventsg_1__NtB8_12FinishReasonNtNtCsjYLpgt1qNsr_5serde2de11Deserialize11deserializeNtB3_14___FieldVisitorNtB1d_7Visitor9visit_u64NtNtCs51Ps0ib0oUr_10serde_json5error5ErrorEBc_
FNDA:0,_RINvXNvXNvNtNtCsaBorPZtlsJg_8latitude6models5eventsg_1__NtB8_12FinishReasonNtNtCsjYLpgt1qNsr_5serde2de11Deserialize11deserializeNtB3_14___FieldVisitorNtB1d_7Visitor9visit_strNtNtCs51Ps0ib0oUr_10serde_json5error5ErrorEBc_
FNDA:0,_RINvXNvXNvNtNtCsaBorPZtlsJg_8latitude6models5eventsg_1__NtB8_12FinishReasonNtNtCsjYLpgt1qNsr_5serde2de11Deserialize11deserializeNtB3_14___FieldVisitorNtB1d_7Visitor11visit_bytesNtNtCs51Ps0ib0oUr_10serde_json5error5ErrorEBc_
FNDA:0,_RINvXs_NvXNvNtNtCsaBorPZtlsJg_8latitude6models5eventsg_1__NtBa_12FinishReasonNtNtCsjYLpgt1qNsr_5serde2de11Deserialize11deserializeNtB5_7___FieldB1d_11deserializeINtNtNtNtB1h_9___private2de7content19ContentDeserializerNtNtCs51Ps0ib0oUr_10serde_json5error5ErrorEEBe_
FNDA:0,_RINvXs0_NvXNvNtNtCsaBorPZtlsJg_8latitude6models5eventsg_1__NtBb_12FinishReasonNtNtCsjYLpgt1qNsr_5serde2de11Deserialize11deserializeNtB6_9___VisitorNtB1g_7Visitor10visit_enumINtNtNtNtB1i_9___private2de7content16EnumDeserializerNtNtCs51Ps0ib0oUr_10serde_json5error5ErrorEEBf_
FNDA:0,_RINvXNvXNvNtNtCsaBorPZtlsJg_8latitude6models5eventsh_1__NtB8_14ProviderFinishNtNtCsjYLpgt1qNsr_5serde2de11Deserialize11deserializeNtB3_14___FieldVisitorNtB1f_7Visitor9visit_u64NtNtCs51Ps0ib0oUr_10serde_json5error5ErrorEBc_
FNDA:0,_RINvXNvXNvNtNtCsaBorPZtlsJg_8latitude6models5eventsh_1__NtB8_14ProviderFinishNtNtCsjYLpgt1qNsr_5serde2de11Deserialize11deserializeNtB3_14___FieldVisitorNtB1f_7Visitor9visit_strNtNtCs51Ps0ib0oUr_10serde_json5error5ErrorEBc_
FNDA:0,_RINvXNvXNvNtNtCsaBorPZtlsJg_8latitude6models5eventsh_1__NtB8_14ProviderFinishNtNtCsjYLpgt1qNsr_5serde2de11Deserialize11deserializeNtB3_14___FieldVisitorNtB1f_7Visitor11visit_bytesNtNtCs51Ps0ib0oUr_10serde_json5error5ErrorEBc_
FNDA:0,_RINvXs_NvXNvNtNtCsaBorPZtlsJg_8latitude6models5eventsh_1__NtBa_14ProviderFinishNtNtCsjYLpgt1qNsr_5serde2de11Deserialize11deserializeNtB5_7___FieldB1f_11deserializeINtNtNtNtB1j_9___private2de7content19ContentDeserializerNtNtCs51Ps0ib0oUr_10serde_json5error5ErrorEEBe_
FNDA:0,_RINvXs0_NvXNvNtNtCsaBorPZtlsJg_8latitude6models5eventsh_1__NtBb_14ProviderFinishNtNtCsjYLpgt1qNsr_5serde2de11Deserialize11deserializeNtB6_9___VisitorNtB1i_7Visitor9visit_seqQINtNtB1i_5value15SeqDeserializerINtNtNtNtCs3LnWLHyH425_4core4iter8adapters3map3MapINtNtNtCsk6rk5B4ufwS_5alloc3vec9into_iter8IntoIterNtNtNtNtB1k_9___private2de7content7ContentENvMse_B4W_INtB4W_19ContentDeserializerNtNtCs51Ps0ib0oUr_10serde_json5error5ErrorE3newEB6d_EEBf_
FNDA:0,_RINvXs0_NvXNvNtNtCsaBorPZtlsJg_8latitude6models5eventsh_1__NtBb_14ProviderFinishNtNtCsjYLpgt1qNsr_5serde2de11Deserialize11deserializeNtB6_9___VisitorNtB1i_7Visitor9visit_mapQINtNtB1i_5value15MapDeserializerINtNtNtNtCs3LnWLHyH425_4core4iter8adapters3map3MapINtNtNtCsk6rk5B4ufwS_5alloc3vec9into_iter8IntoIterTNtNtNtNtB1k_9___private2de7content7ContentB4V_EENCINvB4X_17visit_content_mapB27_NtNtCs51Ps0ib0oUr_10serde_json5error5ErrorE0EB6d_EEBf_
FNDA:0,_RINvXNvXNvNtNtCsaBorPZtlsJg_8latitude6models5eventsi_1__NtB8_16ProviderResponseNtNtCsjYLpgt1qNsr_5serde2de11Deserialize11deserializeNtB3_14___FieldVisitorNtB1h_7Visitor9visit_u64NtNtCs51Ps0ib0oUr_10serde_json5error5ErrorEBc_
FNDA:0,_RINvXNvXNvNtNtCsaBorPZtlsJg_8latitude6models5eventsi_1__NtB8_16ProviderResponseNtNtCsjYLpgt1qNsr_5serde2de11Deserialize11deserializeNtB3_14___FieldVisitorNtB1h_7Visitor9visit_strNtNtCs51Ps0ib0oUr_10serde_json5error5ErrorEBc_
FNDA:0,_RINvXNvXNvNtNtCsaBorPZtlsJg_8latitude6models5eventsi_1__NtB8_16ProviderResponseNtNtCsjYLpgt1qNsr_5serde2de11Deserialize11deserializeNtB3_14___FieldVisitorNtB1h_7Visitor11visit_bytesNtNtCs51Ps0ib0oUr_10serde_json5error5ErrorEBc_
FNDA:0,_RINvXs_NvXNvNtNtCsaBorPZtlsJg_8latitude6models5eventsi_1__NtBa_16ProviderResponseNtNtCsjYLpgt1qNsr_5serde2de11Deserialize11deserializeNtB5_7___FieldB1h_11deserializeINtNtNtNtB1l_9___private2de7content19ContentDeserializerNtNtCs51Ps0ib0oUr_10serde_json5error5ErrorEEBe_
FNDA:0,_RINvXs0_NvXNvNtNtCsaBorPZtlsJg_8latitude6models5eventsi_1__NtBb_16ProviderResponseNtNtCsjYLpgt1qNsr_5serde2de11Deserialize11deserializeNtB6_9___VisitorNtB1k_7Visitor9visit_seqQINtNtB1k_5value15SeqDeserializerINtNtNtNtCs3LnWLHyH425_4core4iter8adapters3map3MapINtNtNtCsk6rk5B4ufwS_5alloc3vec9into_iter8IntoIterNtNtNtNtB1m_9___private2de7content7ContentENvMse_B4Y_INtB4Y_19ContentDeserializerNtNtCs51Ps0ib0oUr_10serde_json5error5ErrorE3newEB6f_EEBf_
FNDA:0,_RINvXs0_NvXNvNtNtCsaBorPZtlsJg_8latitude6models5eventsi_1__NtBb_16ProviderResponseNtNtCsjYLpgt1qNsr_5serde2de11Deserialize11deserializeNtB6_9___VisitorNtB1k_7Visitor9visit_mapQINtNtB1k_5value15MapDeserializerINtNtNtNtCs3LnWLHyH425_4core4iter8adapters3map3MapINtNtNtCsk6rk5B4ufwS_5alloc3vec9into_iter8IntoIterTNtNtNtNtB1m_9___private2de7content7ContentB4X_EENCINvB4Z_17visit_content_mapB29_NtNtCs51Ps0ib0oUr_10serde_json5error5ErrorE0EB6f_EEBf_
FNDA:0,_RINvXNvXNvNtNtCsaBorPZtlsJg_8latitude6models5eventsj_1__NtB8_10ErrorEventNtNtCsjYLpgt1qNsr_5serde2de11Deserialize11deserializeNtB3_14___FieldVisitorNtB1b_7Visitor9visit_u64NtNtCs51Ps0ib0oUr_10serde_json5error5ErrorEBc_
FNDA:0,_RINvXNvXNvNtNtCsaBorPZtlsJg_8latitude6models5eventsj_1__NtB8_10ErrorEventNtNtCsjYLpgt1qNsr_5serde2de11Deserialize11deserializeNtB3_14___FieldVisitorNtB1b_7Visitor9visit_strNtNtCs51Ps0ib0oUr_10serde_json5error5ErrorEBc_
FNDA:0,_RINvXNvXNvNtNtCsaBorPZtlsJg_8latitude6models5eventsj_1__NtB8_10ErrorEventNtNtCsjYLpgt1qNsr_5serde2de11Deserialize11deserializeNtB3_14___FieldVisitorNtB1b_7Visitor11visit_bytesNtNtCs51Ps0ib0oUr_10serde_json5error5ErrorEBc_
FNDA:0,_RINvXs_NvXNvNtNtCsaBorPZtlsJg_8latitude6models5eventsj_1__NtBa_10ErrorEventNtNtCsjYLpgt1qNsr_5serde2de11Deserialize11deserializeNtB5_7___FieldB1b_11deserializeINtNtNtNtB1f_9___private2de7content19ContentDeserializerNtNtCs51Ps0ib0oUr_10serde_json5error5ErrorEEBe_
FNDA:0,_RINvXs0_NvXNvNtNtCsaBorPZtlsJg_8latitude6models5eventsj_1__NtBb_10ErrorEventNtNtCsjYLpgt1qNsr_5serde2de11Deserialize11deserializeNtB6_9___VisitorNtB1e_7Visitor9visit_seqQINtNtB1e_5value15SeqDeserializerINtNtNtNtCs3LnWLHyH425_4core4iter8adapters3map3MapINtNtNtCsk6rk5B4ufwS_5alloc3vec9into_iter8IntoIterNtNtNtNtB1g_9___private2de7content7ContentENvMse_B4S_INtB4S_19ContentDeserializerNtNtCs51Ps0ib0oUr_10serde_json5error5ErrorE3newEB69_EEBf_
FNDA:0,_RINvXs0_NvXNvNtNtCsaBorPZtlsJg_8latitude6models5eventsj_1__NtBb_10ErrorEventNtNtCsjYLpgt1qNsr_5serde2de11Deserialize11deserializeNtB6_9___VisitorNtB1e_7Visitor9visit_mapQINtNtB1e_5value15MapDeserializerINtNtNtNtCs3LnWLHyH425_4core4iter8adapters3map3MapINtNtNtCsk6rk5B4ufwS_5alloc3vec9into_iter8IntoIterTNtNtNtNtB1g_9___private2de7content7ContentB4R_EENCINvB4T_17visit_content_mapB23_NtNtCs51Ps0ib0oUr_10serde_json5error5ErrorE0EB69_EEBf_
FNDA:0,_RNvXs0_NvXNvNtNtCsaBorPZtlsJg_8latitude6models5events_1__NtBa_13LatitudeEventNtNtCsjYLpgt1qNsr_5serde2de11Deserialize11deserializeNtB5_9___VisitorNtB1f_7Visitor9expecting
FNDA:0,_RNvXNvXNvNtNtCsaBorPZtlsJg_8latitude6models5events0_1__NtB7_17LatitudeEventTypeNtNtCsjYLpgt1qNsr_5serde2de11Deserialize11deserializeNtB2_14___FieldVisitorNtB1h_7Visitor9expecting
FNDA:0,_RNvXNvXNvNtNtCsaBorPZtlsJg_8latitude6models5events1_1__NtB7_9ChainStepNtNtCsjYLpgt1qNsr_5serde2de11Deserialize11deserializeNtB2_14___FieldVisitorNtB18_7Visitor9expecting
FNDA:0,_RNvXs0_NvXNvNtNtCsaBorPZtlsJg_8latitude6models5events1_1__NtBa_9ChainStepNtNtCsjYLpgt1qNsr_5serde2de11Deserialize11deserializeNtB5_9___VisitorNtB1b_7Visitor9expecting
FNDA:0,_RNvXNvXNvNtNtCsaBorPZtlsJg_8latitude6models5events2_1__NtB7_13ChainCompleteNtNtCsjYLpgt1qNsr_5serde2de11Deserialize11deserializeNtB2_14___FieldVisitorNtB1d_7Visitor9expecting
FNDA:0,_RNvXs0_NvXNvNtNtCsaBorPZtlsJg_8latitude6models5events2_1__NtBa_13ChainCompleteNtNtCsjYLpgt1qNsr_5serde2de11Deserialize11deserializeNtB5_9___VisitorNtB1g_7Visitor9expecting
FNDA:0,_RNvXNvXNvNtNtCsaBorPZtlsJg_8latitude6models5events3_1__NtB7_6ConfigNtNtCsjYLpgt1qNsr_5serde2de11Deserialize11deserializeNtB2_14___FieldVisitorNtB15_7Visitor9expecting
FNDA:0,_RNvXs0_NvXNvNtNtCsaBorPZtlsJg_8latitude6models5events3_1__NtBa_6ConfigNtNtCsjYLpgt1qNsr_5serde2de11Deserialize11deserializeNtB5_9___VisitorNtB18_7Visitor9expecting
FNDA:0,_RNvXNvXNvNtNtCsaBorPZtlsJg_8latitude6models5events4_1__NtB7_7MessageNtNtCsjYLpgt1qNsr_5serde2de11Deserialize11deserializeNtB2_14___FieldVisitorNtB16_7Visitor9expecting
FNDA:0,_RNvXs0_NvXNvNtNtCsaBorPZtlsJg_8latitude6models5events4_1__NtBa_7MessageNtNtCsjYLpgt1qNsr_5serde2de11Deserialize11deserializeNtB5_9___VisitorNtB19_7Visitor9expecting
FNDA:0,_RNvXNvXNvNtNtCsaBorPZtlsJg_8latitude6models5events5_1__NtB7_4RoleNtNtCsjYLpgt1qNsr_5serde2de11Deserialize11deserializeNtB2_14___FieldVisitorNtB13_7Visitor9expecting
FNDA:0,_RNvXNvXNvNtNtCsaBorPZtlsJg_8latitude6models5events7_1__NtB7_8ResponseNtNtCsjYLpgt1qNsr_5serde2de11Deserialize11deserializeNtB2_14___FieldVisitorNtB17_7Visitor9expecting
FNDA:0,_RNvXs0_NvXNvNtNtCsaBorPZtlsJg_8latitude6models5events7_1__NtBa_8ResponseNtNtCsjYLpgt1qNsr_5serde2de11Deserialize11deserializeNtB5_9___VisitorNtB1a_7Visitor9expecting
FNDA:0,_RNvXNvXNvNtNtCsaBorPZtlsJg_8latitude6models5events8_1__NtB7_8ToolCallNtNtCsjYLpgt1qNsr_5serde2de11Deserialize11deserializeNtB2_14___FieldVisitorNtB17_7Visitor9expecting
FNDA:0,_RNvXs0_NvXNvNtNtCsaBorPZtlsJg_8latitude6models5events8_1__NtBa_8ToolCallNtNtCsjYLpgt1qNsr_5serde2de11Deserialize11deserializeNtB5_9___VisitorNtB1a_7Visitor9expecting
FNDA:0,_RNvXNvXNvNtNtCsaBorPZtlsJg_8latitude6models5events9_1__NtB7_5UsageNtNtCsjYLpgt1qNsr_5serde2de11Deserialize11deserializeNtB2_14___FieldVisitorNtB14_7Visitor9expecting
FNDA:0,_RNvXs0_NvXNvNtNtCsaBorPZtlsJg_8latitude6models5events9_1__NtBa_5UsageNtNtCsjYLpgt1qNsr_5serde2de11Deserialize11deserializeNtB5_9___VisitorNtB17_7Visitor9expecting
FNDA:0,_RNvXs0_NvXNvNtNtCsaBorPZtlsJg_8latitude6models5eventsa_1__NtBa_13ProviderEventNtNtCsjYLpgt1qNsr_5serde2de11Deserialize11deserializeNtB5_9___VisitorNtB1g_7Visitor9expecting
FNDA:0,_RNvXNvXNvNtNtCsaBorPZtlsJg_8latitude6models5eventsb_1__NtB7_17ProviderEventTypeNtNtCsjYLpgt1qNsr_5serde2de11Deserialize11deserializeNtB2_14___FieldVisitorNtB1h_7Visitor9expecting
FNDA:0,_RNvXNvXNvNtNtCsaBorPZtlsJg_8latitude6models5eventsc_1__NtB7_9TextDeltaNtNtCsjYLpgt1qNsr_5serde2de11Deserialize11deserializeNtB2_14___FieldVisitorNtB18_7Visitor9expecting
FNDA:0,_RNvXs0_NvXNvNtNtCsaBorPZtlsJg_8latitude6models5eventsc_1__NtBa_9TextDeltaNtNtCsjYLpgt1qNsr_5serde2de11Deserialize11deserializeNtB5_9___VisitorNtB1b_7Visitor9expecting
FNDA:0,_RNvXNvXNvNtNtCsaBorPZtlsJg_8latitude6models5eventsd_1__NtB7_13ToolCallEventNtNtCsjYLpgt1qNsr_5serde2de11Deserialize11deserializeNtB2_14___FieldVisitorNtB1d_7Visitor9expecting
FNDA:0,_RNvXs0_NvXNvNtNtCsaBorPZtlsJg_8latitude6models5eventsd_1__NtBa_13ToolCallEventNtNtCsjYLpgt1qNsr_5serde2de11Deserialize11deserializeNtB5_9___VisitorNtB1g_7Visitor9expecting
FNDA:0,_RNvXNvXNvNtNtCsaBorPZtlsJg_8latitude6models5eventse_1__NtB7_15ToolResultEventNtNtCsjYLpgt1qNsr_5serde2de11Deserialize11deserializeNtB2_14___FieldVisitorNtB1f_7Visitor9expecting
FNDA:0,_RNvXs0_NvXNvNtNtCsaBorPZtlsJg_8latitude6models5eventse_1__NtBa_15ToolResultEventNtNtCsjYLpgt1qNsr_5serde2de11Deserialize11deserializeNtB5_9___VisitorNtB1i_7Visitor9expecting
FNDA:0,_RNvXNvXNvNtNtCsaBorPZtlsJg_8latitude6models5eventsf_1__NtB7_10StepFinishNtNtCsjYLpgt1qNsr_5serde2de11Deserialize11deserializeNtB2_14___FieldVisitorNtB1a_7Visitor9expecting
FNDA:0,_RNvXs0_NvXNvNtNtCsaBorPZtlsJg_8latitude6models5eventsf_1__NtBa_10StepFinishNtNtCsjYLpgt1qNsr_5serde2de11Deserialize11deserializeNtB5_9___VisitorNtB1d_7Visitor9expecting
FNDA:0,_RNvXNvXNvNtNtCsaBorPZtlsJg_8latitude6models5eventsg_1__NtB7_12FinishReasonNtNtCsjYLpgt1qNsr_5serde2de11Deserialize11deserializeNtB2_14___FieldVisitorNtB1c_7Visitor9expecting
FNDA:0,_RNvXNvXNvNtNtCsaBorPZtlsJg_8latitude6models5eventsh_1__NtB7_14ProviderFinishNtNtCsjYLpgt1qNsr_5serde2de11Deserialize11deserializeNtB2_14___FieldVisitorNtB1e_7Visitor9expecting
FNDA:0,_RNvXs0_NvXNvNtNtCsaBorPZtlsJg_8latitude6models5eventsh_1__NtBa_14ProviderFinishNtNtCsjYLpgt1qNsr_5serde2de11Deserialize11deserializeNtB5_9___VisitorNtB1h_7Visitor9expecting
FNDA:0,_RNvXNvXNvNtNtCsaBorPZtlsJg_8latitude6models5eventsi_1__NtB7_16ProviderResponseNtNtCsjYLpgt1qNsr_5serde2de11Deserialize11deserializeNtB2_14___FieldVisitorNtB1g_7Visitor9expecting
FNDA:0,_RNvXs0_NvXNvNtNtCsaBorPZtlsJg_8latitude6models5eventsi_1__NtBa_16ProviderResponseNtNtCsjYLpgt1qNsr_5serde2de11Deserialize11deserializeNtB5_9___VisitorNtB1j_7Visitor9expecting
FNDA:0,_RNvXNvXNvNtNtCsaBorPZtlsJg_8latitude6models5eventsj_1__NtB7_10ErrorEventNtNtCsjYLpgt1qNsr_5serde2de11Deserialize11deserializeNtB2_14___FieldVisitorNtB1a_7Visitor9expecting
FNDA:0,_RNvXs0_NvXNvNtNtCsaBorPZtlsJg_8latitude6models5eventsj_1__NtBa_10ErrorEventNtNtCsjYLpgt1qNsr_5serde2de11Deserialize11deserializeNtB5_9___VisitorNtB1d_7Visitor9expecting
FNF:22
FNH:9
DA:7,0
DA:16,1
DA:24,1
DA:34,5
DA:44,0
DA:52,3
DA:60,3
DA:69,2
DA:78,0
DA:85,0
DA:94,0
DA:102,0
DA:111,1
DA:118,1
DA:130,2
DA:137,0
DA:146,0
DA:155,0
DA:165,0
DA:178,0
DA:188,0
DA:197,0
BRF:0
BRH:0
LF:22
LH:9
end_of_record
SF:H:\Projects\Latitude\latitude-rs\src\models\options.rs
FN:4,_RNvXNvXNvNtNtCsaBorPZtlsJg_8latitude6models7optionss_1__NtB7_7OptionsNtNtCsjYLpgt1qNsr_5serde2de11Deserialize11deserializeNtB2_14___FieldVisitorNtB17_7Visitor9expecting
FN:4,_RINvXNvXNvNtNtCsaBorPZtlsJg_8latitude6models7optionss_1__NtB8_7OptionsNtNtCsjYLpgt1qNsr_5serde2de11Deserialize11deserializeNtB3_14___FieldVisitorNtB18_7Visitor9visit_u64pEBc_
FN:4,_RINvXNvXNvNtNtCsaBorPZtlsJg_8latitude6models7optionss_1__NtB8_7OptionsNtNtCsjYLpgt1qNsr_5serde2de11Deserialize11deserializeNtB3_14___FieldVisitorNtB18_7Visitor9visit_strpEBc_
FN:4,_RINvXNvXNvNtNtCsaBorPZtlsJg_8latitude6models7optionss_1__NtB8_7OptionsNtNtCsjYLpgt1qNsr_5serde2de11Deserialize11deserializeNtB3_14___FieldVisitorNtB18_7Visitor11visit_bytespEBc_
FN:4,_RINvXs_NvXNvNtNtCsaBorPZtlsJg_8latitude6models7optionss_1__NtBa_7OptionsNtNtCsjYLpgt1qNsr_5serde2de11Deserialize11deserializeNtB5_7___FieldB18_11deserializepEBe_
FN:4,_RNvXs0_NvXNvNtNtCsaBorPZtlsJg_8latitude6models7optionss_1__NtBa_7OptionsNtNtCsjYLpgt1qNsr_5serde2de11Deserialize11deserializeNtB5_9___VisitorNtB1a_7Visitor9expecting
FN:4,_RINvXs0_NvXNvNtNtCsaBorPZtlsJg_8latitude6models7optionss_1__NtBb_7OptionsNtNtCsjYLpgt1qNsr_5serde2de11Deserialize11deserializeNtB6_9___VisitorNtB1b_7Visitor9visit_seqpEBf_
FN:4,_RINvXs0_NvXNvNtNtCsaBorPZtlsJg_8latitude6models7optionss_1__NtBb_7OptionsNtNtCsjYLpgt1qNsr_5serde2de11Deserialize11deserializeNtB6_9___VisitorNtB1b_7Visitor9visit_mappEBf_
FN:17,_RNvMNtNtCsaBorPZtlsJg_8latitude6models7optionsNtB2_7Options3new
FN:24,_RNvMNtNtCsaBorPZtlsJg_8latitude6models7optionsNtB2_7Options7builder
FN:35,_RNvXs_NtNtCsaBorPZtlsJg_8latitude6models7optionsNtB4_14OptionsBuilderNtNtCs3LnWLHyH425_4core7default7Default7default
FN:49,_RNvMs0_NtNtCsaBorPZtlsJg_8latitude6models7optionsNtB5_14OptionsBuilder10version_id
FN:59,_RNvMs0_NtNtCsaBorPZtlsJg_8latitude6models7optionsNtB5_14OptionsBuilder10project_id
FN:69,_RNvMs0_NtNtCsaBorPZtlsJg_8latitude6models7optionsNtB5_14OptionsBuilder5build
FNDA:0,_RNvXNvXNvNtNtCsaBorPZtlsJg_8latitude6models7optionss_1__NtB7_7OptionsNtNtCsjYLpgt1qNsr_5serde2de11Deserialize11deserializeNtB2_14___FieldVisitorNtB17_7Visitor9expecting
FNDA:0,_RINvXNvXNvNtNtCsaBorPZtlsJg_8latitude6models7optionss_1__NtB8_7OptionsNtNtCsjYLpgt1qNsr_5serde2de11Deserialize11deserializeNtB3_14___FieldVisitorNtB18_7Visitor9visit_u64pEBc_
FNDA:0,_RINvXNvXNvNtNtCsaBorPZtlsJg_8latitude6models7optionss_1__NtB8_7OptionsNtNtCsjYLpgt1qNsr_5serde2de11Deserialize11deserializeNtB3_14___FieldVisitorNtB18_7Visitor9visit_strpEBc_
FNDA:0,_RINvXNvXNvNtNtCsaBorPZtlsJg_8latitude6models7optionss_1__NtB8_7OptionsNtNtCsjYLpgt1qNsr_5serde2de11Deserialize11deserializeNtB3_14___FieldVisitorNtB18_7Visitor11visit_bytespEBc_
FNDA:0,_RINvXs_NvXNvNtNtCsaBorPZtlsJg_8latitude6models7optionss_1__NtBa_7OptionsNtNtCsjYLpgt1qNsr_5serde2de11Deserialize11deserializeNtB5_7___FieldB18_11deserializepEBe_
FNDA:0,_RNvXs0_NvXNvNtNtCsaBorPZtlsJg_8latitude6models7optionss_1__NtBa_7OptionsNtNtCsjYLpgt1qNsr_5serde2de11Deserialize11deserializeNtB5_9___VisitorNtB1a_7Visitor9expecting
FNDA:0,_RINvXs0_NvXNvNtNtCsaBorPZtlsJg_8latitude6models7optionss_1__NtBb_7OptionsNtNtCsjYLpgt1qNsr_5serde2de11Deserialize11deserializeNtB6_9___VisitorNtB1b_7Visitor9visit_seqpEBf_
FNDA:0,_RINvXs0_NvXNvNtNtCsaBorPZtlsJg_8latitude6models7optionss_1__NtBb_7OptionsNtNtCsjYLpgt1qNsr_5serde2de11Deserialize11deserializeNtB6_9___VisitorNtB1b_7Visitor9visit_mappEBf_
FNDA:0,_RNvMNtNtCsaBorPZtlsJg_8latitude6models7optionsNtB2_7Options3new
FNDA:1,_RNvMNtNtCsaBorPZtlsJg_8latitude6models7optionsNtB2_7Options7builder
FNDA:1,_RNvXs_NtNtCsaBorPZtlsJg_8latitude6models7optionsNtB4_14OptionsBuilderNtNtCs3LnWLHyH425_4core7default7Default7default
FNDA:1,_RNvMs0_NtNtCsaBorPZtlsJg_8latitude6models7optionsNtB5_14OptionsBuilder10version_id
FNDA:1,_RNvMs0_NtNtCsaBorPZtlsJg_8latitude6models7optionsNtB5_14OptionsBuilder10project_id
FNDA:1,_RNvMs0_NtNtCsaBorPZtlsJg_8latitude6models7optionsNtB5_14OptionsBuilder5build
FNF:7
FNH:5
DA:4,0
DA:17,0
DA:18,0
DA:19,0
DA:20,0
DA:21,0
DA:22,0
DA:24,1
DA:25,1
DA:26,1
DA:35,1
DA:36,1
DA:37,1
DA:38,1
DA:39,1
DA:40,1
DA:49,1
DA:50,1
DA:51,1
DA:52,1
DA:59,1
DA:60,1
DA:61,1
DA:62,1
DA:69,1
DA:70,1
DA:71,1
DA:72,1
DA:73,1
DA:74,1
BRF:0
BRH:0
LF:30
LH:23
end_of_record